
bomb：     文件格式 elf32-i386


Disassembly of section .init:

080486f4 <_init>:
 80486f4:	53                   	push   %ebx
 80486f5:	83 ec 08             	sub    $0x8,%esp
 80486f8:	e8 13 02 00 00       	call   8048910 <__x86.get_pc_thunk.bx>
 80486fd:	81 c3 03 39 00 00    	add    $0x3903,%ebx
 8048703:	8b 83 fc ff ff ff    	mov    -0x4(%ebx),%eax
 8048709:	85 c0                	test   %eax,%eax
 804870b:	74 05                	je     8048712 <_init+0x1e>
 804870d:	e8 be 01 00 00       	call   80488d0 <__sprintf_chk@plt+0x10>
 8048712:	83 c4 08             	add    $0x8,%esp
 8048715:	5b                   	pop    %ebx
 8048716:	c3                   	ret    

Disassembly of section .plt:

08048720 <read@plt-0x10>:
 8048720:	ff 35 04 c0 04 08    	pushl  0x804c004
 8048726:	ff 25 08 c0 04 08    	jmp    *0x804c008
 804872c:	00 00                	add    %al,(%eax)
	...

08048730 <read@plt>:
 8048730:	ff 25 0c c0 04 08    	jmp    *0x804c00c
 8048736:	68 00 00 00 00       	push   $0x0
 804873b:	e9 e0 ff ff ff       	jmp    8048720 <_init+0x2c>

08048740 <fflush@plt>:
 8048740:	ff 25 10 c0 04 08    	jmp    *0x804c010
 8048746:	68 08 00 00 00       	push   $0x8
 804874b:	e9 d0 ff ff ff       	jmp    8048720 <_init+0x2c>

08048750 <fgets@plt>:
 8048750:	ff 25 14 c0 04 08    	jmp    *0x804c014
 8048756:	68 10 00 00 00       	push   $0x10
 804875b:	e9 c0 ff ff ff       	jmp    8048720 <_init+0x2c>

08048760 <signal@plt>:
 8048760:	ff 25 18 c0 04 08    	jmp    *0x804c018
 8048766:	68 18 00 00 00       	push   $0x18
 804876b:	e9 b0 ff ff ff       	jmp    8048720 <_init+0x2c>

08048770 <sleep@plt>:
 8048770:	ff 25 1c c0 04 08    	jmp    *0x804c01c
 8048776:	68 20 00 00 00       	push   $0x20
 804877b:	e9 a0 ff ff ff       	jmp    8048720 <_init+0x2c>

08048780 <alarm@plt>:
 8048780:	ff 25 20 c0 04 08    	jmp    *0x804c020
 8048786:	68 28 00 00 00       	push   $0x28
 804878b:	e9 90 ff ff ff       	jmp    8048720 <_init+0x2c>

08048790 <__stack_chk_fail@plt>:
 8048790:	ff 25 24 c0 04 08    	jmp    *0x804c024
 8048796:	68 30 00 00 00       	push   $0x30
 804879b:	e9 80 ff ff ff       	jmp    8048720 <_init+0x2c>

080487a0 <strcpy@plt>:
 80487a0:	ff 25 28 c0 04 08    	jmp    *0x804c028
 80487a6:	68 38 00 00 00       	push   $0x38
 80487ab:	e9 70 ff ff ff       	jmp    8048720 <_init+0x2c>

080487b0 <getenv@plt>:
 80487b0:	ff 25 2c c0 04 08    	jmp    *0x804c02c
 80487b6:	68 40 00 00 00       	push   $0x40
 80487bb:	e9 60 ff ff ff       	jmp    8048720 <_init+0x2c>

080487c0 <puts@plt>:
 80487c0:	ff 25 30 c0 04 08    	jmp    *0x804c030
 80487c6:	68 48 00 00 00       	push   $0x48
 80487cb:	e9 50 ff ff ff       	jmp    8048720 <_init+0x2c>

080487d0 <__memmove_chk@plt>:
 80487d0:	ff 25 34 c0 04 08    	jmp    *0x804c034
 80487d6:	68 50 00 00 00       	push   $0x50
 80487db:	e9 40 ff ff ff       	jmp    8048720 <_init+0x2c>

080487e0 <exit@plt>:
 80487e0:	ff 25 38 c0 04 08    	jmp    *0x804c038
 80487e6:	68 58 00 00 00       	push   $0x58
 80487eb:	e9 30 ff ff ff       	jmp    8048720 <_init+0x2c>

080487f0 <__libc_start_main@plt>:
 80487f0:	ff 25 3c c0 04 08    	jmp    *0x804c03c
 80487f6:	68 60 00 00 00       	push   $0x60
 80487fb:	e9 20 ff ff ff       	jmp    8048720 <_init+0x2c>

08048800 <write@plt>:
 8048800:	ff 25 40 c0 04 08    	jmp    *0x804c040
 8048806:	68 68 00 00 00       	push   $0x68
 804880b:	e9 10 ff ff ff       	jmp    8048720 <_init+0x2c>

08048810 <__isoc99_sscanf@plt>:
 8048810:	ff 25 44 c0 04 08    	jmp    *0x804c044
 8048816:	68 70 00 00 00       	push   $0x70
 804881b:	e9 00 ff ff ff       	jmp    8048720 <_init+0x2c>

08048820 <fopen@plt>:
 8048820:	ff 25 48 c0 04 08    	jmp    *0x804c048
 8048826:	68 78 00 00 00       	push   $0x78
 804882b:	e9 f0 fe ff ff       	jmp    8048720 <_init+0x2c>

08048830 <__errno_location@plt>:
 8048830:	ff 25 4c c0 04 08    	jmp    *0x804c04c
 8048836:	68 80 00 00 00       	push   $0x80
 804883b:	e9 e0 fe ff ff       	jmp    8048720 <_init+0x2c>

08048840 <__printf_chk@plt>:
 8048840:	ff 25 50 c0 04 08    	jmp    *0x804c050
 8048846:	68 88 00 00 00       	push   $0x88
 804884b:	e9 d0 fe ff ff       	jmp    8048720 <_init+0x2c>

08048850 <socket@plt>:
 8048850:	ff 25 54 c0 04 08    	jmp    *0x804c054
 8048856:	68 90 00 00 00       	push   $0x90
 804885b:	e9 c0 fe ff ff       	jmp    8048720 <_init+0x2c>

08048860 <__fprintf_chk@plt>:
 8048860:	ff 25 58 c0 04 08    	jmp    *0x804c058
 8048866:	68 98 00 00 00       	push   $0x98
 804886b:	e9 b0 fe ff ff       	jmp    8048720 <_init+0x2c>

08048870 <gethostbyname@plt>:
 8048870:	ff 25 5c c0 04 08    	jmp    *0x804c05c
 8048876:	68 a0 00 00 00       	push   $0xa0
 804887b:	e9 a0 fe ff ff       	jmp    8048720 <_init+0x2c>

08048880 <strtol@plt>:
 8048880:	ff 25 60 c0 04 08    	jmp    *0x804c060
 8048886:	68 a8 00 00 00       	push   $0xa8
 804888b:	e9 90 fe ff ff       	jmp    8048720 <_init+0x2c>

08048890 <connect@plt>:
 8048890:	ff 25 64 c0 04 08    	jmp    *0x804c064
 8048896:	68 b0 00 00 00       	push   $0xb0
 804889b:	e9 80 fe ff ff       	jmp    8048720 <_init+0x2c>

080488a0 <close@plt>:
 80488a0:	ff 25 68 c0 04 08    	jmp    *0x804c068
 80488a6:	68 b8 00 00 00       	push   $0xb8
 80488ab:	e9 70 fe ff ff       	jmp    8048720 <_init+0x2c>

080488b0 <__ctype_b_loc@plt>:
 80488b0:	ff 25 6c c0 04 08    	jmp    *0x804c06c
 80488b6:	68 c0 00 00 00       	push   $0xc0
 80488bb:	e9 60 fe ff ff       	jmp    8048720 <_init+0x2c>

080488c0 <__sprintf_chk@plt>:
 80488c0:	ff 25 70 c0 04 08    	jmp    *0x804c070
 80488c6:	68 c8 00 00 00       	push   $0xc8
 80488cb:	e9 50 fe ff ff       	jmp    8048720 <_init+0x2c>

Disassembly of section .plt.got:

080488d0 <.plt.got>:
 80488d0:	ff 25 fc bf 04 08    	jmp    *0x804bffc
 80488d6:	66 90                	xchg   %ax,%ax

Disassembly of section .text:

080488e0 <_start>:
 80488e0:	31 ed                	xor    %ebp,%ebp
 80488e2:	5e                   	pop    %esi
 80488e3:	89 e1                	mov    %esp,%ecx
 80488e5:	83 e4 f0             	and    $0xfffffff0,%esp
 80488e8:	50                   	push   %eax
 80488e9:	54                   	push   %esp
 80488ea:	52                   	push   %edx
 80488eb:	68 60 9f 04 08       	push   $0x8049f60
 80488f0:	68 00 9f 04 08       	push   $0x8049f00
 80488f5:	51                   	push   %ecx
 80488f6:	56                   	push   %esi
 80488f7:	68 db 89 04 08       	push   $0x80489db
 80488fc:	e8 ef fe ff ff       	call   80487f0 <__libc_start_main@plt>
 8048901:	f4                   	hlt    
 8048902:	66 90                	xchg   %ax,%ax
 8048904:	66 90                	xchg   %ax,%ax
 8048906:	66 90                	xchg   %ax,%ax
 8048908:	66 90                	xchg   %ax,%ax
 804890a:	66 90                	xchg   %ax,%ax
 804890c:	66 90                	xchg   %ax,%ax
 804890e:	66 90                	xchg   %ax,%ax

08048910 <__x86.get_pc_thunk.bx>:
 8048910:	8b 1c 24             	mov    (%esp),%ebx
 8048913:	c3                   	ret    
 8048914:	66 90                	xchg   %ax,%ax
 8048916:	66 90                	xchg   %ax,%ax
 8048918:	66 90                	xchg   %ax,%ax
 804891a:	66 90                	xchg   %ax,%ax
 804891c:	66 90                	xchg   %ax,%ax
 804891e:	66 90                	xchg   %ax,%ax

08048920 <deregister_tm_clones>:
 8048920:	b8 a3 c3 04 08       	mov    $0x804c3a3,%eax
 8048925:	2d a0 c3 04 08       	sub    $0x804c3a0,%eax
 804892a:	83 f8 06             	cmp    $0x6,%eax
 804892d:	76 1a                	jbe    8048949 <deregister_tm_clones+0x29>
 804892f:	b8 00 00 00 00       	mov    $0x0,%eax
 8048934:	85 c0                	test   %eax,%eax
 8048936:	74 11                	je     8048949 <deregister_tm_clones+0x29>
 8048938:	55                   	push   %ebp
 8048939:	89 e5                	mov    %esp,%ebp
 804893b:	83 ec 14             	sub    $0x14,%esp
 804893e:	68 a0 c3 04 08       	push   $0x804c3a0
 8048943:	ff d0                	call   *%eax
 8048945:	83 c4 10             	add    $0x10,%esp
 8048948:	c9                   	leave  
 8048949:	f3 c3                	repz ret 
 804894b:	90                   	nop
 804894c:	8d 74 26 00          	lea    0x0(%esi,%eiz,1),%esi

08048950 <register_tm_clones>:
 8048950:	b8 a0 c3 04 08       	mov    $0x804c3a0,%eax
 8048955:	2d a0 c3 04 08       	sub    $0x804c3a0,%eax
 804895a:	c1 f8 02             	sar    $0x2,%eax
 804895d:	89 c2                	mov    %eax,%edx
 804895f:	c1 ea 1f             	shr    $0x1f,%edx
 8048962:	01 d0                	add    %edx,%eax
 8048964:	d1 f8                	sar    %eax
 8048966:	74 1b                	je     8048983 <register_tm_clones+0x33>
 8048968:	ba 00 00 00 00       	mov    $0x0,%edx
 804896d:	85 d2                	test   %edx,%edx
 804896f:	74 12                	je     8048983 <register_tm_clones+0x33>
 8048971:	55                   	push   %ebp
 8048972:	89 e5                	mov    %esp,%ebp
 8048974:	83 ec 10             	sub    $0x10,%esp
 8048977:	50                   	push   %eax
 8048978:	68 a0 c3 04 08       	push   $0x804c3a0
 804897d:	ff d2                	call   *%edx
 804897f:	83 c4 10             	add    $0x10,%esp
 8048982:	c9                   	leave  
 8048983:	f3 c3                	repz ret 
 8048985:	8d 74 26 00          	lea    0x0(%esi,%eiz,1),%esi
 8048989:	8d bc 27 00 00 00 00 	lea    0x0(%edi,%eiz,1),%edi

08048990 <__do_global_dtors_aux>:
 8048990:	80 3d c8 c3 04 08 00 	cmpb   $0x0,0x804c3c8
 8048997:	75 13                	jne    80489ac <__do_global_dtors_aux+0x1c>
 8048999:	55                   	push   %ebp
 804899a:	89 e5                	mov    %esp,%ebp
 804899c:	83 ec 08             	sub    $0x8,%esp
 804899f:	e8 7c ff ff ff       	call   8048920 <deregister_tm_clones>
 80489a4:	c6 05 c8 c3 04 08 01 	movb   $0x1,0x804c3c8
 80489ab:	c9                   	leave  
 80489ac:	f3 c3                	repz ret 
 80489ae:	66 90                	xchg   %ax,%ax

080489b0 <frame_dummy>:
 80489b0:	b8 10 bf 04 08       	mov    $0x804bf10,%eax
 80489b5:	8b 10                	mov    (%eax),%edx
 80489b7:	85 d2                	test   %edx,%edx
 80489b9:	75 05                	jne    80489c0 <frame_dummy+0x10>
 80489bb:	eb 93                	jmp    8048950 <register_tm_clones>
 80489bd:	8d 76 00             	lea    0x0(%esi),%esi
 80489c0:	ba 00 00 00 00       	mov    $0x0,%edx
 80489c5:	85 d2                	test   %edx,%edx
 80489c7:	74 f2                	je     80489bb <frame_dummy+0xb>
 80489c9:	55                   	push   %ebp
 80489ca:	89 e5                	mov    %esp,%ebp
 80489cc:	83 ec 14             	sub    $0x14,%esp
 80489cf:	50                   	push   %eax
 80489d0:	ff d2                	call   *%edx
 80489d2:	83 c4 10             	add    $0x10,%esp
 80489d5:	c9                   	leave  
 80489d6:	e9 75 ff ff ff       	jmp    8048950 <register_tm_clones>

080489db <main>:
 80489db:	8d 4c 24 04          	lea    0x4(%esp),%ecx
 80489df:	83 e4 f0             	and    $0xfffffff0,%esp
 80489e2:	ff 71 fc             	pushl  -0x4(%ecx)
 80489e5:	55                   	push   %ebp
 80489e6:	89 e5                	mov    %esp,%ebp
 80489e8:	53                   	push   %ebx
 80489e9:	51                   	push   %ecx
 80489ea:	8b 01                	mov    (%ecx),%eax
 80489ec:	8b 59 04             	mov    0x4(%ecx),%ebx
 80489ef:	83 f8 01             	cmp    $0x1,%eax
 80489f2:	0f 84 01 01 00 00    	je     8048af9 <main+0x11e>
 80489f8:	83 f8 02             	cmp    $0x2,%eax
 80489fb:	0f 85 24 01 00 00    	jne    8048b25 <main+0x14a>
 8048a01:	83 ec 08             	sub    $0x8,%esp
 8048a04:	68 88 9f 04 08       	push   $0x8049f88
 8048a09:	ff 73 04             	pushl  0x4(%ebx)
 8048a0c:	e8 0f fe ff ff       	call   8048820 <fopen@plt>
 8048a11:	a3 d0 c3 04 08       	mov    %eax,0x804c3d0
 8048a16:	83 c4 10             	add    $0x10,%esp
 8048a19:	85 c0                	test   %eax,%eax
 8048a1b:	0f 84 e7 00 00 00    	je     8048b08 <main+0x12d>
 8048a21:	e8 05 07 00 00       	call   804912b <initialize_bomb>
 8048a26:	83 ec 0c             	sub    $0xc,%esp
 8048a29:	68 0c a0 04 08       	push   $0x804a00c
 8048a2e:	e8 8d fd ff ff       	call   80487c0 <puts@plt>
 8048a33:	c7 04 24 48 a0 04 08 	movl   $0x804a048,(%esp)
 8048a3a:	e8 81 fd ff ff       	call   80487c0 <puts@plt>
 8048a3f:	e8 d7 07 00 00       	call   804921b <read_line>
 8048a44:	89 04 24             	mov    %eax,(%esp)
 8048a47:	e8 f6 00 00 00       	call   8048b42 <phase_1>
 8048a4c:	e8 c9 08 00 00       	call   804931a <phase_defused>
 8048a51:	c7 04 24 74 a0 04 08 	movl   $0x804a074,(%esp)
 8048a58:	e8 63 fd ff ff       	call   80487c0 <puts@plt>
 8048a5d:	e8 b9 07 00 00       	call   804921b <read_line>
 8048a62:	89 04 24             	mov    %eax,(%esp)
 8048a65:	e8 fb 00 00 00       	call   8048b65 <phase_2>
 8048a6a:	e8 ab 08 00 00       	call   804931a <phase_defused>
 8048a6f:	c7 04 24 c1 9f 04 08 	movl   $0x8049fc1,(%esp)
 8048a76:	e8 45 fd ff ff       	call   80487c0 <puts@plt>
 8048a7b:	e8 9b 07 00 00       	call   804921b <read_line>
 8048a80:	89 04 24             	mov    %eax,(%esp)
 8048a83:	e8 44 01 00 00       	call   8048bcc <phase_3>
 8048a88:	e8 8d 08 00 00       	call   804931a <phase_defused>
 8048a8d:	c7 04 24 df 9f 04 08 	movl   $0x8049fdf,(%esp)
 8048a94:	e8 27 fd ff ff       	call   80487c0 <puts@plt>
 8048a99:	e8 7d 07 00 00       	call   804921b <read_line>
 8048a9e:	89 04 24             	mov    %eax,(%esp)
 8048aa1:	e8 d3 02 00 00       	call   8048d79 <phase_4>
 8048aa6:	e8 6f 08 00 00       	call   804931a <phase_defused>
 8048aab:	c7 04 24 a0 a0 04 08 	movl   $0x804a0a0,(%esp)
 8048ab2:	e8 09 fd ff ff       	call   80487c0 <puts@plt>
 8048ab7:	e8 5f 07 00 00       	call   804921b <read_line>
 8048abc:	89 04 24             	mov    %eax,(%esp)
 8048abf:	e8 29 03 00 00       	call   8048ded <phase_5>
 8048ac4:	e8 51 08 00 00       	call   804931a <phase_defused>
 8048ac9:	c7 04 24 ee 9f 04 08 	movl   $0x8049fee,(%esp)
 8048ad0:	e8 eb fc ff ff       	call   80487c0 <puts@plt>
 8048ad5:	e8 41 07 00 00       	call   804921b <read_line>
 8048ada:	89 04 24             	mov    %eax,(%esp)
 8048add:	e8 9a 03 00 00       	call   8048e7c <phase_6>
 8048ae2:	e8 33 08 00 00       	call   804931a <phase_defused>
 8048ae7:	83 c4 10             	add    $0x10,%esp
 8048aea:	b8 00 00 00 00       	mov    $0x0,%eax
 8048aef:	8d 65 f8             	lea    -0x8(%ebp),%esp
 8048af2:	59                   	pop    %ecx
 8048af3:	5b                   	pop    %ebx
 8048af4:	5d                   	pop    %ebp
 8048af5:	8d 61 fc             	lea    -0x4(%ecx),%esp
 8048af8:	c3                   	ret    
 8048af9:	a1 c0 c3 04 08       	mov    0x804c3c0,%eax
 8048afe:	a3 d0 c3 04 08       	mov    %eax,0x804c3d0
 8048b03:	e9 19 ff ff ff       	jmp    8048a21 <main+0x46>
 8048b08:	ff 73 04             	pushl  0x4(%ebx)
 8048b0b:	ff 33                	pushl  (%ebx)
 8048b0d:	68 8a 9f 04 08       	push   $0x8049f8a
 8048b12:	6a 01                	push   $0x1
 8048b14:	e8 27 fd ff ff       	call   8048840 <__printf_chk@plt>
 8048b19:	c7 04 24 08 00 00 00 	movl   $0x8,(%esp)
 8048b20:	e8 bb fc ff ff       	call   80487e0 <exit@plt>
 8048b25:	83 ec 04             	sub    $0x4,%esp
 8048b28:	ff 33                	pushl  (%ebx)
 8048b2a:	68 a7 9f 04 08       	push   $0x8049fa7
 8048b2f:	6a 01                	push   $0x1
 8048b31:	e8 0a fd ff ff       	call   8048840 <__printf_chk@plt>
 8048b36:	c7 04 24 08 00 00 00 	movl   $0x8,(%esp)
 8048b3d:	e8 9e fc ff ff       	call   80487e0 <exit@plt>

08048b42 <phase_1>:
 8048b42:	83 ec 14             	sub    $0x14,%esp
 8048b45:	68 c4 a0 04 08       	push   $0x804a0c4
 8048b4a:	ff 74 24 1c          	pushl  0x1c(%esp)
 8048b4e:	e8 73 05 00 00       	call   80490c6 <strings_not_equal>
 8048b53:	83 c4 10             	add    $0x10,%esp
 8048b56:	85 c0                	test   %eax,%eax
 8048b58:	75 04                	jne    8048b5e <phase_1+0x1c>
 8048b5a:	83 c4 0c             	add    $0xc,%esp
 8048b5d:	c3                   	ret    
 8048b5e:	e8 58 06 00 00       	call   80491bb <explode_bomb>
 8048b63:	eb f5                	jmp    8048b5a <phase_1+0x18>

08048b65 <phase_2>:
 8048b65:	56                   	push   %esi
 8048b66:	53                   	push   %ebx
 8048b67:	83 ec 2c             	sub    $0x2c,%esp
 8048b6a:	65 a1 14 00 00 00    	mov    %gs:0x14,%eax
 8048b70:	89 44 24 24          	mov    %eax,0x24(%esp)
 8048b74:	31 c0                	xor    %eax,%eax
 8048b76:	8d 44 24 0c          	lea    0xc(%esp),%eax
 8048b7a:	50                   	push   %eax
 8048b7b:	ff 74 24 3c          	pushl  0x3c(%esp)
 8048b7f:	e8 5c 06 00 00       	call   80491e0 <read_six_numbers>
 8048b84:	83 c4 10             	add    $0x10,%esp
 8048b87:	83 7c 24 04 01       	cmpl   $0x1,0x4(%esp)
 8048b8c:	74 05                	je     8048b93 <phase_2+0x2e>
 8048b8e:	e8 28 06 00 00       	call   80491bb <explode_bomb>
 8048b93:	8d 5c 24 04          	lea    0x4(%esp),%ebx
 8048b97:	8d 74 24 18          	lea    0x18(%esp),%esi
 8048b9b:	eb 07                	jmp    8048ba4 <phase_2+0x3f>
 8048b9d:	83 c3 04             	add    $0x4,%ebx
 8048ba0:	39 f3                	cmp    %esi,%ebx
 8048ba2:	74 10                	je     8048bb4 <phase_2+0x4f>
 8048ba4:	8b 03                	mov    (%ebx),%eax
 8048ba6:	01 c0                	add    %eax,%eax
 8048ba8:	39 43 04             	cmp    %eax,0x4(%ebx)
 8048bab:	74 f0                	je     8048b9d <phase_2+0x38>
 8048bad:	e8 09 06 00 00       	call   80491bb <explode_bomb>
 8048bb2:	eb e9                	jmp    8048b9d <phase_2+0x38>
 8048bb4:	8b 44 24 1c          	mov    0x1c(%esp),%eax
 8048bb8:	65 33 05 14 00 00 00 	xor    %gs:0x14,%eax
 8048bbf:	75 06                	jne    8048bc7 <phase_2+0x62>
 8048bc1:	83 c4 24             	add    $0x24,%esp
 8048bc4:	5b                   	pop    %ebx
 8048bc5:	5e                   	pop    %esi
 8048bc6:	c3                   	ret    
 8048bc7:	e8 c4 fb ff ff       	call   8048790 <__stack_chk_fail@plt>

08048bcc <phase_3>:
 8048bcc:	83 ec 28             	sub    $0x28,%esp
 8048bcf:	65 a1 14 00 00 00    	mov    %gs:0x14,%eax
 8048bd5:	89 44 24 18          	mov    %eax,0x18(%esp)
 8048bd9:	31 c0                	xor    %eax,%eax
 8048bdb:	8d 44 24 14          	lea    0x14(%esp),%eax
 8048bdf:	50                   	push   %eax
 8048be0:	8d 44 24 13          	lea    0x13(%esp),%eax
 8048be4:	50                   	push   %eax
 8048be5:	8d 44 24 18          	lea    0x18(%esp),%eax
 8048be9:	50                   	push   %eax
 8048bea:	68 1a a1 04 08       	push   $0x804a11a
 8048bef:	ff 74 24 3c          	pushl  0x3c(%esp)
 8048bf3:	e8 18 fc ff ff       	call   8048810 <__isoc99_sscanf@plt>
 8048bf8:	83 c4 20             	add    $0x20,%esp
 8048bfb:	83 f8 02             	cmp    $0x2,%eax
 8048bfe:	7e 16                	jle    8048c16 <phase_3+0x4a>
 8048c00:	83 7c 24 04 07       	cmpl   $0x7,0x4(%esp)
 8048c05:	0f 87 00 01 00 00    	ja     8048d0b <phase_3+0x13f>
 8048c0b:	8b 44 24 04          	mov    0x4(%esp),%eax
 8048c0f:	ff 24 85 40 a1 04 08 	jmp    *0x804a140(,%eax,4)
 8048c16:	e8 a0 05 00 00       	call   80491bb <explode_bomb>
 8048c1b:	eb e3                	jmp    8048c00 <phase_3+0x34>
 8048c1d:	b8 67 00 00 00       	mov    $0x67,%eax
 8048c22:	81 7c 24 08 5e 03 00 	cmpl   $0x35e,0x8(%esp)
 8048c29:	00 
 8048c2a:	0f 84 e5 00 00 00    	je     8048d15 <phase_3+0x149>
 8048c30:	e8 86 05 00 00       	call   80491bb <explode_bomb>
 8048c35:	b8 67 00 00 00       	mov    $0x67,%eaxp
 8048c3a:	e9 d6 00 00 00       	jmp    8048d15 <phase_3+0x149>
 8048c3f:	b8 67 00 00 00       	mov    $0x67,%eax
 8048c44:	83 7c 24 08 41       	cmpl   $0x41,0x8(%esp)
 8048c49:	0f 84 c6 00 00 00    	je     8048d15 <phase_3+0x149>
 8048c4f:	e8 67 05 00 00       	call   80491bb <explode_bomb>
 8048c54:	b8 67 00 00 00       	mov    $0x67,%eax
 8048c59:	e9 b7 00 00 00       	jmp    8048d15 <phase_3+0x149>
 8048c5e:	b8 78 00 00 00       	mov    $0x78,%eax
 8048c63:	81 7c 24 08 8c 02 00 	cmpl   $0x28c,0x8(%esp)
 8048c6a:	00 
 8048c6b:	0f 84 a4 00 00 00    	je     8048d15 <phase_3+0x149>
 8048c71:	e8 45 05 00 00       	call   80491bb <explode_bomb>
 8048c76:	b8 78 00 00 00       	mov    $0x78,%eax
 8048c7b:	e9 95 00 00 00       	jmp    8048d15 <phase_3+0x149>
 8048c80:	b8 67 00 00 00       	mov    $0x67,%eax
 8048c85:	81 7c 24 08 ee 01 00 	cmpl   $0x1ee,0x8(%esp)
 8048c8c:	00 
 8048c8d:	0f 84 82 00 00 00    	je     8048d15 <phase_3+0x149>
 8048c93:	e8 23 05 00 00       	call   80491bb <explode_bomb>
 8048c98:	b8 67 00 00 00       	mov    $0x67,%eax
 8048c9d:	eb 76                	jmp    8048d15 <phase_3+0x149>
 8048c9f:	b8 6f 00 00 00       	mov    $0x6f,%eax
 8048ca4:	81 7c 24 08 89 01 00 	cmpl   $0x189,0x8(%esp)
 8048cab:	00 
 8048cac:	74 67                	je     8048d15 <phase_3+0x149>
 8048cae:	e8 08 05 00 00       	call   80491bb <explode_bomb>
 8048cb3:	b8 6f 00 00 00       	mov    $0x6f,%eax
 8048cb8:	eb 5b                	jmp    8048d15 <phase_3+0x149>
 8048cba:	b8 64 00 00 00       	mov    $0x64,%eax
 8048cbf:	81 7c 24 08 03 02 00 	cmpl   $0x203,0x8(%esp)
 8048cc6:	00 
 8048cc7:	74 4c                	je     8048d15 <phase_3+0x149>
 8048cc9:	e8 ed 04 00 00       	call   80491bb <explode_bomb>
 8048cce:	b8 64 00 00 00       	mov    $0x64,%eax
 8048cd3:	eb 40                	jmp    8048d15 <phase_3+0x149>
 8048cd5:	b8 64 00 00 00       	mov    $0x64,%eax
 8048cda:	81 7c 24 08 cb 01 00 	cmpl   $0x1cb,0x8(%esp)
 8048ce1:	00 
 8048ce2:	74 31                	je     8048d15 <phase_3+0x149>
 8048ce4:	e8 d2 04 00 00       	call   80491bb <explode_bomb>
 8048ce9:	b8 64 00 00 00       	mov    $0x64,%eax
 8048cee:	eb 25                	jmp    8048d15 <phase_3+0x149>
 8048cf0:	b8 6f 00 00 00       	mov    $0x6f,%eax
 8048cf5:	81 7c 24 08 2d 02 00 	cmpl   $0x22d,0x8(%esp)
 8048cfc:	00 
 8048cfd:	74 16                	je     8048d15 <phase_3+0x149>
 8048cff:	e8 b7 04 00 00       	call   80491bb <explode_bomb>
 8048d04:	b8 6f 00 00 00       	mov    $0x6f,%eax
 8048d09:	eb 0a                	jmp    8048d15 <phase_3+0x149>
 8048d0b:	e8 ab 04 00 00       	call   80491bb <explode_bomb>
 8048d10:	b8 69 00 00 00       	mov    $0x69,%eax
 8048d15:	3a 44 24 03          	cmp    0x3(%esp),%al
 8048d19:	74 05                	je     8048d20 <phase_3+0x154>
 8048d1b:	e8 9b 04 00 00       	call   80491bb <explode_bomb>
 8048d20:	8b 44 24 0c          	mov    0xc(%esp),%eax
 8048d24:	65 33 05 14 00 00 00 	xor    %gs:0x14,%eax
 8048d2b:	75 04                	jne    8048d31 <phase_3+0x165>
 8048d2d:	83 c4 1c             	add    $0x1c,%esp
 8048d30:	c3                   	ret    
 8048d31:	e8 5a fa ff ff       	call   8048790 <__stack_chk_fail@plt>

08048d36 <func4>:
 8048d36:	57                   	push   %edi
 8048d37:	56                   	push   %esi
 8048d38:	53                   	push   %ebx
 8048d39:	8b 5c 24 10          	mov    0x10(%esp),%ebx
 8048d3d:	8b 7c 24 14          	mov    0x14(%esp),%edi
 8048d41:	85 db                	test   %ebx,%ebx
 8048d43:	7e 2d                	jle    8048d72 <func4+0x3c>
 8048d45:	89 f8                	mov    %edi,%eax
 8048d47:	83 fb 01             	cmp    $0x1,%ebx
 8048d4a:	74 22                	je     8048d6e <func4+0x38>
 8048d4c:	83 ec 08             	sub    $0x8,%esp
 8048d4f:	57                   	push   %edi
 8048d50:	8d 43 ff             	lea    -0x1(%ebx),%eax
 8048d53:	50                   	push   %eax
 8048d54:	e8 dd ff ff ff       	call   8048d36 <func4>
 8048d59:	83 c4 08             	add    $0x8,%esp
 8048d5c:	8d 34 07             	lea    (%edi,%eax,1),%esi
 8048d5f:	57                   	push   %edi
 8048d60:	83 eb 02             	sub    $0x2,%ebx
 8048d63:	53                   	push   %ebx
 8048d64:	e8 cd ff ff ff       	call   8048d36 <func4>
 8048d69:	83 c4 10             	add    $0x10,%esp
 8048d6c:	01 f0                	add    %esi,%eax
 8048d6e:	5b                   	pop    %ebx
 8048d6f:	5e                   	pop    %esi
 8048d70:	5f                   	pop    %edi
 8048d71:	c3                   	ret    
 8048d72:	b8 00 00 00 00       	mov    $0x0,%eax
 8048d77:	eb f5                	jmp    8048d6e <func4+0x38>

08048d79 <phase_4>:
 8048d79:	83 ec 1c             	sub    $0x1c,%esp
 8048d7c:	65 a1 14 00 00 00    	mov    %gs:0x14,%eax
 8048d82:	89 44 24 0c          	mov    %eax,0xc(%esp)
 8048d86:	31 c0                	xor    %eax,%eax
 8048d88:	8d 44 24 04          	lea    0x4(%esp),%eax
 8048d8c:	50                   	push   %eax
 8048d8d:	8d 44 24 0c          	lea    0xc(%esp),%eax
 8048d91:	50                   	push   %eax
 8048d92:	68 af a2 04 08       	push   $0x804a2af
 8048d97:	ff 74 24 2c          	pushl  0x2c(%esp)
 8048d9b:	e8 70 fa ff ff       	call   8048810 <__isoc99_sscanf@plt>
 8048da0:	83 c4 10             	add    $0x10,%esp
 8048da3:	83 f8 02             	cmp    $0x2,%eax
 8048da6:	74 32                	je     8048dda <phase_4+0x61>
 8048da8:	e8 0e 04 00 00       	call   80491bb <explode_bomb>
 8048dad:	83 ec 08             	sub    $0x8,%esp
 8048db0:	ff 74 24 0c          	pushl  0xc(%esp)
 8048db4:	6a 06                	push   $0x6
 8048db6:	e8 7b ff ff ff       	call   8048d36 <func4>
 8048dbb:	83 c4 10             	add    $0x10,%esp
 8048dbe:	3b 44 24 08          	cmp    0x8(%esp),%eax
 8048dc2:	74 05                	je     8048dc9 <phase_4+0x50>
 8048dc4:	e8 f2 03 00 00       	call   80491bb <explode_bomb>
 8048dc9:	8b 44 24 0c          	mov    0xc(%esp),%eax
 8048dcd:	65 33 05 14 00 00 00 	xor    %gs:0x14,%eax
 8048dd4:	75 12                	jne    8048de8 <phase_4+0x6f>
 8048dd6:	83 c4 1c             	add    $0x1c,%esp
 8048dd9:	c3                   	ret    
 8048dda:	8b 44 24 04          	mov    0x4(%esp),%eax
 8048dde:	83 e8 02             	sub    $0x2,%eax
 8048de1:	83 f8 02             	cmp    $0x2,%eax
 8048de4:	76 c7                	jbe    8048dad <phase_4+0x34>
 8048de6:	eb c0                	jmp    8048da8 <phase_4+0x2f>
 8048de8:	e8 a3 f9 ff ff       	call   8048790 <__stack_chk_fail@plt>

08048ded <phase_5>:
 8048ded:	83 ec 1c             	sub    $0x1c,%esp
 8048df0:	65 a1 14 00 00 00    	mov    %gs:0x14,%eax
 8048df6:	89 44 24 0c          	mov    %eax,0xc(%esp)
 8048dfa:	31 c0                	xor    %eax,%eax
 8048dfc:	8d 44 24 08          	lea    0x8(%esp),%eax
 8048e00:	50                   	push   %eax
 8048e01:	8d 44 24 08          	lea    0x8(%esp),%eax
 8048e05:	50                   	push   %eax
 8048e06:	68 af a2 04 08       	push   $0x804a2af
 8048e0b:	ff 74 24 2c          	pushl  0x2c(%esp)
 8048e0f:	e8 fc f9 ff ff       	call   8048810 <__isoc99_sscanf@plt>
 8048e14:	83 c4 10             	add    $0x10,%esp
 8048e17:	83 f8 01             	cmp    $0x1,%eax
 8048e1a:	7e 54                	jle    8048e70 <phase_5+0x83>
 8048e1c:	8b 44 24 04          	mov    0x4(%esp),%eax
 8048e20:	83 e0 0f             	and    $0xf,%eax
 8048e23:	89 44 24 04          	mov    %eax,0x4(%esp)
 8048e27:	83 f8 0f             	cmp    $0xf,%eax
 8048e2a:	74 2e                	je     8048e5a <phase_5+0x6d>
 8048e2c:	b9 00 00 00 00       	mov    $0x0,%ecx
 8048e31:	ba 00 00 00 00       	mov    $0x0,%edx
 8048e36:	83 c2 01             	add    $0x1,%edx
 8048e39:	8b 04 85 60 a1 04 08 	mov    0x804a160(,%eax,4),%eax
 8048e40:	01 c1                	add    %eax,%ecx
 8048e42:	83 f8 0f             	cmp    $0xf,%eax
 8048e45:	75 ef                	jne    8048e36 <phase_5+0x49>
 8048e47:	c7 44 24 04 0f 00 00 	movl   $0xf,0x4(%esp)
 8048e4e:	00 
 8048e4f:	83 fa 0f             	cmp    $0xf,%edx
 8048e52:	75 06                	jne    8048e5a <phase_5+0x6d>
 8048e54:	3b 4c 24 08          	cmp    0x8(%esp),%ecx
 8048e58:	74 05                	je     8048e5f <phase_5+0x72>
 8048e5a:	e8 5c 03 00 00       	call   80491bb <explode_bomb>
 8048e5f:	8b 44 24 0c          	mov    0xc(%esp),%eax
 8048e63:	65 33 05 14 00 00 00 	xor    %gs:0x14,%eax
 8048e6a:	75 0b                	jne    8048e77 <phase_5+0x8a>
 8048e6c:	83 c4 1c             	add    $0x1c,%esp
 8048e6f:	c3                   	ret    
 8048e70:	e8 46 03 00 00       	call   80491bb <explode_bomb>
 8048e75:	eb a5                	jmp    8048e1c <phase_5+0x2f>
 8048e77:	e8 14 f9 ff ff       	call   8048790 <__stack_chk_fail@plt>

08048e7c <phase_6>:
 8048e7c:	56                   	push   %esi
 8048e7d:	53                   	push   %ebx
 8048e7e:	83 ec 4c             	sub    $0x4c,%esp
 8048e81:	65 a1 14 00 00 00    	mov    %gs:0x14,%eax
 8048e87:	89 44 24 44          	mov    %eax,0x44(%esp)
 8048e8b:	31 c0                	xor    %eax,%eax
 8048e8d:	8d 44 24 14          	lea    0x14(%esp),%eax
 8048e91:	50                   	push   %eax
 8048e92:	ff 74 24 5c          	pushl  0x5c(%esp)
 8048e96:	e8 45 03 00 00       	call   80491e0 <read_six_numbers>
 8048e9b:	83 c4 10             	add    $0x10,%esp
 8048e9e:	be 00 00 00 00       	mov    $0x0,%esi
 8048ea3:	eb 1c                	jmp    8048ec1 <phase_6+0x45>
 8048ea5:	83 c6 01             	add    $0x1,%esi
 8048ea8:	83 fe 06             	cmp    $0x6,%esi
 8048eab:	74 2e                	je     8048edb <phase_6+0x5f>
 8048ead:	89 f3                	mov    %esi,%ebx
 8048eaf:	8b 44 9c 0c          	mov    0xc(%esp,%ebx,4),%eax
 8048eb3:	39 44 b4 08          	cmp    %eax,0x8(%esp,%esi,4)
 8048eb7:	74 1b                	je     8048ed4 <phase_6+0x58>
 8048eb9:	83 c3 01             	add    $0x1,%ebx
 8048ebc:	83 fb 05             	cmp    $0x5,%ebx
 8048ebf:	7e ee                	jle    8048eaf <phase_6+0x33>
 8048ec1:	8b 44 b4 0c          	mov    0xc(%esp,%esi,4),%eax
 8048ec5:	83 e8 01             	sub    $0x1,%eax
 8048ec8:	83 f8 05             	cmp    $0x5,%eax
 8048ecb:	76 d8                	jbe    8048ea5 <phase_6+0x29>
 8048ecd:	e8 e9 02 00 00       	call   80491bb <explode_bomb>
 8048ed2:	eb d1                	jmp    8048ea5 <phase_6+0x29>
 8048ed4:	e8 e2 02 00 00       	call   80491bb <explode_bomb>
 8048ed9:	eb de                	jmp    8048eb9 <phase_6+0x3d>
 8048edb:	8d 44 24 0c          	lea    0xc(%esp),%eax
 8048edf:	8d 5c 24 24          	lea    0x24(%esp),%ebx
 8048ee3:	b9 07 00 00 00       	mov    $0x7,%ecx
 8048ee8:	89 ca                	mov    %ecx,%edx
 8048eea:	2b 10                	sub    (%eax),%edx
 8048eec:	89 10                	mov    %edx,(%eax)
 8048eee:	83 c0 04             	add    $0x4,%eax
 8048ef1:	39 c3                	cmp    %eax,%ebx
 8048ef3:	75 f3                	jne    8048ee8 <phase_6+0x6c>
 8048ef5:	bb 00 00 00 00       	mov    $0x0,%ebx
 8048efa:	89 de                	mov    %ebx,%esi
 8048efc:	8b 4c 9c 0c          	mov    0xc(%esp,%ebx,4),%ecx
 8048f00:	b8 01 00 00 00       	mov    $0x1,%eax
 8048f05:	ba 3c c1 04 08       	mov    $0x804c13c,%edx
 8048f0a:	83 f9 01             	cmp    $0x1,%ecx
 8048f0d:	7e 0a                	jle    8048f19 <phase_6+0x9d>
 8048f0f:	8b 52 08             	mov    0x8(%edx),%edx
 8048f12:	83 c0 01             	add    $0x1,%eax
 8048f15:	39 c8                	cmp    %ecx,%eax
 8048f17:	75 f6                	jne    8048f0f <phase_6+0x93>
 8048f19:	89 54 b4 24          	mov    %edx,0x24(%esp,%esi,4)
 8048f1d:	83 c3 01             	add    $0x1,%ebx
 8048f20:	83 fb 06             	cmp    $0x6,%ebx
 8048f23:	75 d5                	jne    8048efa <phase_6+0x7e>
 8048f25:	8b 5c 24 24          	mov    0x24(%esp),%ebx
 8048f29:	89 d9                	mov    %ebx,%ecx
 8048f2b:	b8 01 00 00 00       	mov    $0x1,%eax
 8048f30:	8b 54 84 24          	mov    0x24(%esp,%eax,4),%edx
 8048f34:	89 51 08             	mov    %edx,0x8(%ecx)
 8048f37:	83 c0 01             	add    $0x1,%eax
 8048f3a:	89 d1                	mov    %edx,%ecx
 8048f3c:	83 f8 06             	cmp    $0x6,%eax
 8048f3f:	75 ef                	jne    8048f30 <phase_6+0xb4>
 8048f41:	c7 42 08 00 00 00 00 	movl   $0x0,0x8(%edx)
 8048f48:	be 05 00 00 00       	mov    $0x5,%esi
 8048f4d:	eb 08                	jmp    8048f57 <phase_6+0xdb>
 8048f4f:	8b 5b 08             	mov    0x8(%ebx),%ebx
 8048f52:	83 ee 01             	sub    $0x1,%esi
 8048f55:	74 10                	je     8048f67 <phase_6+0xeb>
 8048f57:	8b 43 08             	mov    0x8(%ebx),%eax
 8048f5a:	8b 00                	mov    (%eax),%eax
 8048f5c:	39 03                	cmp    %eax,(%ebx)
 8048f5e:	7d ef                	jge    8048f4f <phase_6+0xd3>
 8048f60:	e8 56 02 00 00       	call   80491bb <explode_bomb>
 8048f65:	eb e8                	jmp    8048f4f <phase_6+0xd3>
 8048f67:	8b 44 24 3c          	mov    0x3c(%esp),%eax
 8048f6b:	65 33 05 14 00 00 00 	xor    %gs:0x14,%eax
 8048f72:	75 06                	jne    8048f7a <phase_6+0xfe>
 8048f74:	83 c4 44             	add    $0x44,%esp
 8048f77:	5b                   	pop    %ebx
 8048f78:	5e                   	pop    %esi
 8048f79:	c3                   	ret    
 8048f7a:	e8 11 f8 ff ff       	call   8048790 <__stack_chk_fail@plt>

08048f7f <fun7>:
 8048f7f:	53                   	push   %ebx
 8048f80:	83 ec 08             	sub    $0x8,%esp
 8048f83:	8b 54 24 10          	mov    0x10(%esp),%edx
 8048f87:	8b 4c 24 14          	mov    0x14(%esp),%ecx
 8048f8b:	85 d2                	test   %edx,%edx
 8048f8d:	74 3a                	je     8048fc9 <fun7+0x4a>
 8048f8f:	8b 1a                	mov    (%edx),%ebx
 8048f91:	39 cb                	cmp    %ecx,%ebx
 8048f93:	7f 21                	jg     8048fb6 <fun7+0x37>
 8048f95:	b8 00 00 00 00       	mov    $0x0,%eax
 8048f9a:	39 cb                	cmp    %ecx,%ebx
 8048f9c:	74 13                	je     8048fb1 <fun7+0x32>
 8048f9e:	83 ec 08             	sub    $0x8,%esp
 8048fa1:	51                   	push   %ecx
 8048fa2:	ff 72 08             	pushl  0x8(%edx)
 8048fa5:	e8 d5 ff ff ff       	call   8048f7f <fun7>
 8048faa:	83 c4 10             	add    $0x10,%esp
 8048fad:	8d 44 00 01          	lea    0x1(%eax,%eax,1),%eax
 8048fb1:	83 c4 08             	add    $0x8,%esp
 8048fb4:	5b                   	pop    %ebx
 8048fb5:	c3                   	ret    
 8048fb6:	83 ec 08             	sub    $0x8,%esp
 8048fb9:	51                   	push   %ecx
 8048fba:	ff 72 04             	pushl  0x4(%edx)
 8048fbd:	e8 bd ff ff ff       	call   8048f7f <fun7>
 8048fc2:	83 c4 10             	add    $0x10,%esp
 8048fc5:	01 c0                	add    %eax,%eax
 8048fc7:	eb e8                	jmp    8048fb1 <fun7+0x32>
 8048fc9:	b8 ff ff ff ff       	mov    $0xffffffff,%eax
 8048fce:	eb e1                	jmp    8048fb1 <fun7+0x32>

08048fd0 <secret_phase>:
 8048fd0:	53                   	push   %ebx
 8048fd1:	83 ec 08             	sub    $0x8,%esp
 8048fd4:	e8 42 02 00 00       	call   804921b <read_line>
 8048fd9:	83 ec 04             	sub    $0x4,%esp
 8048fdc:	6a 0a                	push   $0xa
 8048fde:	6a 00                	push   $0x0
 8048fe0:	50                   	push   %eax
 8048fe1:	e8 9a f8 ff ff       	call   8048880 <strtol@plt>
 8048fe6:	89 c3                	mov    %eax,%ebx
 8048fe8:	8d 40 ff             	lea    -0x1(%eax),%eax
 8048feb:	83 c4 10             	add    $0x10,%esp
 8048fee:	3d e8 03 00 00       	cmp    $0x3e8,%eax
 8048ff3:	77 32                	ja     8049027 <secret_phase+0x57>
 8048ff5:	83 ec 08             	sub    $0x8,%esp
 8048ff8:	53                   	push   %ebx
 8048ff9:	68 88 c0 04 08       	push   $0x804c088
 8048ffe:	e8 7c ff ff ff       	call   8048f7f <fun7>
 8049003:	83 c4 10             	add    $0x10,%esp
 8049006:	83 f8 07             	cmp    $0x7,%eax
 8049009:	74 05                	je     8049010 <secret_phase+0x40>
 804900b:	e8 ab 01 00 00       	call   80491bb <explode_bomb>
 8049010:	83 ec 0c             	sub    $0xc,%esp
 8049013:	68 f4 a0 04 08       	push   $0x804a0f4
 8049018:	e8 a3 f7 ff ff       	call   80487c0 <puts@plt>
 804901d:	e8 f8 02 00 00       	call   804931a <phase_defused>
 8049022:	83 c4 18             	add    $0x18,%esp
 8049025:	5b                   	pop    %ebx
 8049026:	c3                   	ret    
 8049027:	e8 8f 01 00 00       	call   80491bb <explode_bomb>
 804902c:	eb c7                	jmp    8048ff5 <secret_phase+0x25>

0804902e <sig_handler>:
 804902e:	83 ec 18             	sub    $0x18,%esp
 8049031:	68 a0 a1 04 08       	push   $0x804a1a0
 8049036:	e8 85 f7 ff ff       	call   80487c0 <puts@plt>
 804903b:	c7 04 24 03 00 00 00 	movl   $0x3,(%esp)
 8049042:	e8 29 f7 ff ff       	call   8048770 <sleep@plt>
 8049047:	83 c4 08             	add    $0x8,%esp
 804904a:	68 62 a2 04 08       	push   $0x804a262
 804904f:	6a 01                	push   $0x1
 8049051:	e8 ea f7 ff ff       	call   8048840 <__printf_chk@plt>
 8049056:	83 c4 04             	add    $0x4,%esp
 8049059:	ff 35 c4 c3 04 08    	pushl  0x804c3c4
 804905f:	e8 dc f6 ff ff       	call   8048740 <fflush@plt>
 8049064:	c7 04 24 01 00 00 00 	movl   $0x1,(%esp)
 804906b:	e8 00 f7 ff ff       	call   8048770 <sleep@plt>
 8049070:	c7 04 24 6a a2 04 08 	movl   $0x804a26a,(%esp)
 8049077:	e8 44 f7 ff ff       	call   80487c0 <puts@plt>
 804907c:	c7 04 24 10 00 00 00 	movl   $0x10,(%esp)
 8049083:	e8 58 f7 ff ff       	call   80487e0 <exit@plt>

08049088 <invalid_phase>:
 8049088:	83 ec 10             	sub    $0x10,%esp
 804908b:	ff 74 24 14          	pushl  0x14(%esp)
 804908f:	68 72 a2 04 08       	push   $0x804a272
 8049094:	6a 01                	push   $0x1
 8049096:	e8 a5 f7 ff ff       	call   8048840 <__printf_chk@plt>
 804909b:	c7 04 24 08 00 00 00 	movl   $0x8,(%esp)
 80490a2:	e8 39 f7 ff ff       	call   80487e0 <exit@plt>

080490a7 <string_length>:
 80490a7:	8b 54 24 04          	mov    0x4(%esp),%edx
 80490ab:	80 3a 00             	cmpb   $0x0,(%edx)
 80490ae:	74 10                	je     80490c0 <string_length+0x19>
 80490b0:	b8 00 00 00 00       	mov    $0x0,%eax
 80490b5:	83 c0 01             	add    $0x1,%eax
 80490b8:	80 3c 02 00          	cmpb   $0x0,(%edx,%eax,1)
 80490bc:	75 f7                	jne    80490b5 <string_length+0xe>
 80490be:	f3 c3                	repz ret 
 80490c0:	b8 00 00 00 00       	mov    $0x0,%eax
 80490c5:	c3                   	ret    

080490c6 <strings_not_equal>:
 80490c6:	57                   	push   %edi
 80490c7:	56                   	push   %esi
 80490c8:	53                   	push   %ebx
 80490c9:	8b 5c 24 10          	mov    0x10(%esp),%ebx
 80490cd:	8b 74 24 14          	mov    0x14(%esp),%esi
 80490d1:	53                   	push   %ebx
 80490d2:	e8 d0 ff ff ff       	call   80490a7 <string_length>
 80490d7:	89 c7                	mov    %eax,%edi
 80490d9:	89 34 24             	mov    %esi,(%esp)
 80490dc:	e8 c6 ff ff ff       	call   80490a7 <string_length>
 80490e1:	83 c4 04             	add    $0x4,%esp
 80490e4:	ba 01 00 00 00       	mov    $0x1,%edx
 80490e9:	39 c7                	cmp    %eax,%edi
 80490eb:	74 06                	je     80490f3 <strings_not_equal+0x2d>
 80490ed:	89 d0                	mov    %edx,%eax
 80490ef:	5b                   	pop    %ebx
 80490f0:	5e                   	pop    %esi
 80490f1:	5f                   	pop    %edi
 80490f2:	c3                   	ret    
 80490f3:	0f b6 03             	movzbl (%ebx),%eax
 80490f6:	84 c0                	test   %al,%al
 80490f8:	74 23                	je     804911d <strings_not_equal+0x57>
 80490fa:	3a 06                	cmp    (%esi),%al
 80490fc:	75 26                	jne    8049124 <strings_not_equal+0x5e>
 80490fe:	83 c3 01             	add    $0x1,%ebx
 8049101:	83 c6 01             	add    $0x1,%esi
 8049104:	0f b6 03             	movzbl (%ebx),%eax
 8049107:	84 c0                	test   %al,%al
 8049109:	74 0b                	je     8049116 <strings_not_equal+0x50>
 804910b:	3a 06                	cmp    (%esi),%al
 804910d:	74 ef                	je     80490fe <strings_not_equal+0x38>
 804910f:	ba 01 00 00 00       	mov    $0x1,%edx
 8049114:	eb d7                	jmp    80490ed <strings_not_equal+0x27>
 8049116:	ba 00 00 00 00       	mov    $0x0,%edx
 804911b:	eb d0                	jmp    80490ed <strings_not_equal+0x27>
 804911d:	ba 00 00 00 00       	mov    $0x0,%edx
 8049122:	eb c9                	jmp    80490ed <strings_not_equal+0x27>
 8049124:	ba 01 00 00 00       	mov    $0x1,%edx
 8049129:	eb c2                	jmp    80490ed <strings_not_equal+0x27>

0804912b <initialize_bomb>:
 804912b:	83 ec 14             	sub    $0x14,%esp
 804912e:	68 2e 90 04 08       	push   $0x804902e
 8049133:	6a 02                	push   $0x2
 8049135:	e8 26 f6 ff ff       	call   8048760 <signal@plt>
 804913a:	83 c4 1c             	add    $0x1c,%esp
 804913d:	c3                   	ret    

0804913e <initialize_bomb_solve>:
 804913e:	f3 c3                	repz ret 

08049140 <blank_line>:
 8049140:	56                   	push   %esi
 8049141:	53                   	push   %ebx
 8049142:	83 ec 04             	sub    $0x4,%esp
 8049145:	8b 74 24 10          	mov    0x10(%esp),%esi
 8049149:	0f b6 1e             	movzbl (%esi),%ebx
 804914c:	84 db                	test   %bl,%bl
 804914e:	74 1b                	je     804916b <blank_line+0x2b>
 8049150:	e8 5b f7 ff ff       	call   80488b0 <__ctype_b_loc@plt>
 8049155:	83 c6 01             	add    $0x1,%esi
 8049158:	0f be db             	movsbl %bl,%ebx
 804915b:	8b 00                	mov    (%eax),%eax
 804915d:	f6 44 58 01 20       	testb  $0x20,0x1(%eax,%ebx,2)
 8049162:	75 e5                	jne    8049149 <blank_line+0x9>
 8049164:	b8 00 00 00 00       	mov    $0x0,%eax
 8049169:	eb 05                	jmp    8049170 <blank_line+0x30>
 804916b:	b8 01 00 00 00       	mov    $0x1,%eax
 8049170:	83 c4 04             	add    $0x4,%esp
 8049173:	5b                   	pop    %ebx
 8049174:	5e                   	pop    %esi
 8049175:	c3                   	ret    

08049176 <skip>:
 8049176:	53                   	push   %ebx
 8049177:	83 ec 08             	sub    $0x8,%esp
 804917a:	83 ec 04             	sub    $0x4,%esp
 804917d:	ff 35 d0 c3 04 08    	pushl  0x804c3d0
 8049183:	6a 50                	push   $0x50
 8049185:	a1 cc c3 04 08       	mov    0x804c3cc,%eax
 804918a:	8d 04 80             	lea    (%eax,%eax,4),%eax
 804918d:	c1 e0 04             	shl    $0x4,%eax
 8049190:	05 e0 c3 04 08       	add    $0x804c3e0,%eax
 8049195:	50                   	push   %eax
 8049196:	e8 b5 f5 ff ff       	call   8048750 <fgets@plt>
 804919b:	89 c3                	mov    %eax,%ebx
 804919d:	83 c4 10             	add    $0x10,%esp
 80491a0:	85 c0                	test   %eax,%eax
 80491a2:	74 10                	je     80491b4 <skip+0x3e>
 80491a4:	83 ec 0c             	sub    $0xc,%esp
 80491a7:	50                   	push   %eax
 80491a8:	e8 93 ff ff ff       	call   8049140 <blank_line>
 80491ad:	83 c4 10             	add    $0x10,%esp
 80491b0:	85 c0                	test   %eax,%eax
 80491b2:	75 c6                	jne    804917a <skip+0x4>
 80491b4:	89 d8                	mov    %ebx,%eax
 80491b6:	83 c4 08             	add    $0x8,%esp
 80491b9:	5b                   	pop    %ebx
 80491ba:	c3                   	ret    

080491bb <explode_bomb>:
 80491bb:	83 ec 18             	sub    $0x18,%esp
 80491be:	68 83 a2 04 08       	push   $0x804a283
 80491c3:	e8 f8 f5 ff ff       	call   80487c0 <puts@plt>
 80491c8:	c7 04 24 8c a2 04 08 	movl   $0x804a28c,(%esp)
 80491cf:	e8 ec f5 ff ff       	call   80487c0 <puts@plt>
 80491d4:	c7 04 24 08 00 00 00 	movl   $0x8,(%esp)
 80491db:	e8 00 f6 ff ff       	call   80487e0 <exit@plt>

080491e0 <read_six_numbers>:
 80491e0:	83 ec 0c             	sub    $0xc,%esp
 80491e3:	8b 44 24 14          	mov    0x14(%esp),%eax
 80491e7:	8d 50 14             	lea    0x14(%eax),%edx
 80491ea:	52                   	push   %edx
 80491eb:	8d 50 10             	lea    0x10(%eax),%edx
 80491ee:	52                   	push   %edx
 80491ef:	8d 50 0c             	lea    0xc(%eax),%edx
 80491f2:	52                   	push   %edx
 80491f3:	8d 50 08             	lea    0x8(%eax),%edx
 80491f6:	52                   	push   %edx
 80491f7:	8d 50 04             	lea    0x4(%eax),%edx
 80491fa:	52                   	push   %edx
 80491fb:	50                   	push   %eax
 80491fc:	68 a3 a2 04 08       	push   $0x804a2a3
 8049201:	ff 74 24 2c          	pushl  0x2c(%esp)
 8049205:	e8 06 f6 ff ff       	call   8048810 <__isoc99_sscanf@plt>
 804920a:	83 c4 20             	add    $0x20,%esp
 804920d:	83 f8 05             	cmp    $0x5,%eax
 8049210:	7e 04                	jle    8049216 <read_six_numbers+0x36>
 8049212:	83 c4 0c             	add    $0xc,%esp
 8049215:	c3                   	ret    
 8049216:	e8 a0 ff ff ff       	call   80491bb <explode_bomb>

0804921b <read_line>:
 804921b:	57                   	push   %edi
 804921c:	56                   	push   %esi
 804921d:	53                   	push   %ebx
 804921e:	e8 53 ff ff ff       	call   8049176 <skip>
 8049223:	85 c0                	test   %eax,%eax
 8049225:	74 4b                	je     8049272 <read_line+0x57>
 8049227:	8b 15 cc c3 04 08    	mov    0x804c3cc,%edx
 804922d:	8d 1c 92             	lea    (%edx,%edx,4),%ebx
 8049230:	c1 e3 04             	shl    $0x4,%ebx
 8049233:	81 c3 e0 c3 04 08    	add    $0x804c3e0,%ebx
 8049239:	b8 00 00 00 00       	mov    $0x0,%eax
 804923e:	b9 ff ff ff ff       	mov    $0xffffffff,%ecx
 8049243:	89 df                	mov    %ebx,%edi
 8049245:	f2 ae                	repnz scas %es:(%edi),%al
 8049247:	f7 d1                	not    %ecx
 8049249:	83 e9 01             	sub    $0x1,%ecx
 804924c:	83 f9 4e             	cmp    $0x4e,%ecx
 804924f:	0f 8f 8d 00 00 00    	jg     80492e2 <read_line+0xc7>
 8049255:	8d 04 92             	lea    (%edx,%edx,4),%eax
 8049258:	c1 e0 04             	shl    $0x4,%eax
 804925b:	c6 84 01 df c3 04 08 	movb   $0x0,0x804c3df(%ecx,%eax,1)
 8049262:	00 
 8049263:	83 c2 01             	add    $0x1,%edx
 8049266:	89 15 cc c3 04 08    	mov    %edx,0x804c3cc
 804926c:	89 d8                	mov    %ebx,%eax
 804926e:	5b                   	pop    %ebx
 804926f:	5e                   	pop    %esi
 8049270:	5f                   	pop    %edi
 8049271:	c3                   	ret    
 8049272:	a1 c0 c3 04 08       	mov    0x804c3c0,%eax
 8049277:	39 05 d0 c3 04 08    	cmp    %eax,0x804c3d0
 804927d:	74 40                	je     80492bf <read_line+0xa4>
 804927f:	83 ec 0c             	sub    $0xc,%esp
 8049282:	68 d3 a2 04 08       	push   $0x804a2d3
 8049287:	e8 24 f5 ff ff       	call   80487b0 <getenv@plt>
 804928c:	83 c4 10             	add    $0x10,%esp
 804928f:	85 c0                	test   %eax,%eax
 8049291:	75 45                	jne    80492d8 <read_line+0xbd>
 8049293:	a1 c0 c3 04 08       	mov    0x804c3c0,%eax
 8049298:	a3 d0 c3 04 08       	mov    %eax,0x804c3d0
 804929d:	e8 d4 fe ff ff       	call   8049176 <skip>
 80492a2:	85 c0                	test   %eax,%eax
 80492a4:	75 81                	jne    8049227 <read_line+0xc>
 80492a6:	83 ec 0c             	sub    $0xc,%esp
 80492a9:	68 b5 a2 04 08       	push   $0x804a2b5
 80492ae:	e8 0d f5 ff ff       	call   80487c0 <puts@plt>
 80492b3:	c7 04 24 00 00 00 00 	movl   $0x0,(%esp)
 80492ba:	e8 21 f5 ff ff       	call   80487e0 <exit@plt>
 80492bf:	83 ec 0c             	sub    $0xc,%esp
 80492c2:	68 b5 a2 04 08       	push   $0x804a2b5
 80492c7:	e8 f4 f4 ff ff       	call   80487c0 <puts@plt>
 80492cc:	c7 04 24 08 00 00 00 	movl   $0x8,(%esp)
 80492d3:	e8 08 f5 ff ff       	call   80487e0 <exit@plt>
 80492d8:	83 ec 0c             	sub    $0xc,%esp
 80492db:	6a 00                	push   $0x0
 80492dd:	e8 fe f4 ff ff       	call   80487e0 <exit@plt>
 80492e2:	83 ec 0c             	sub    $0xc,%esp
 80492e5:	68 de a2 04 08       	push   $0x804a2de
 80492ea:	e8 d1 f4 ff ff       	call   80487c0 <puts@plt>
 80492ef:	a1 cc c3 04 08       	mov    0x804c3cc,%eax
 80492f4:	8d 50 01             	lea    0x1(%eax),%edx
 80492f7:	89 15 cc c3 04 08    	mov    %edx,0x804c3cc
 80492fd:	6b c0 50             	imul   $0x50,%eax,%eax
 8049300:	05 e0 c3 04 08       	add    $0x804c3e0,%eax
 8049305:	ba f9 a2 04 08       	mov    $0x804a2f9,%edx
 804930a:	b9 04 00 00 00       	mov    $0x4,%ecx
 804930f:	89 c7                	mov    %eax,%edi
 8049311:	89 d6                	mov    %edx,%esi
 8049313:	f3 a5                	rep movsl %ds:(%esi),%es:(%edi)
 8049315:	e8 a1 fe ff ff       	call   80491bb <explode_bomb>

0804931a <phase_defused>:
 804931a:	83 ec 6c             	sub    $0x6c,%esp
 804931d:	65 a1 14 00 00 00    	mov    %gs:0x14,%eax
 8049323:	89 44 24 5c          	mov    %eax,0x5c(%esp)
 8049327:	31 c0                	xor    %eax,%eax
 8049329:	83 3d cc c3 04 08 06 	cmpl   $0x6,0x804c3cc
 8049330:	74 11                	je     8049343 <phase_defused+0x29>
 8049332:	8b 44 24 5c          	mov    0x5c(%esp),%eax
 8049336:	65 33 05 14 00 00 00 	xor    %gs:0x14,%eax
 804933d:	75 7b                	jne    80493ba <phase_defused+0xa0>
 804933f:	83 c4 6c             	add    $0x6c,%esp
 8049342:	c3                   	ret    
 8049343:	83 ec 0c             	sub    $0xc,%esp
 8049346:	8d 44 24 18          	lea    0x18(%esp),%eax
 804934a:	50                   	push   %eax
 804934b:	8d 44 24 18          	lea    0x18(%esp),%eax
 804934f:	50                   	push   %eax
 8049350:	8d 44 24 18          	lea    0x18(%esp),%eax
 8049354:	50                   	push   %eax
 8049355:	68 09 a3 04 08       	push   $0x804a309
 804935a:	68 d0 c4 04 08       	push   $0x804c4d0
 804935f:	e8 ac f4 ff ff       	call   8048810 <__isoc99_sscanf@plt>
 8049364:	83 c4 20             	add    $0x20,%esp
 8049367:	83 f8 03             	cmp    $0x3,%eax
 804936a:	74 12                	je     804937e <phase_defused+0x64>
 804936c:	83 ec 0c             	sub    $0xc,%esp
 804936f:	68 38 a2 04 08       	push   $0x804a238
 8049374:	e8 47 f4 ff ff       	call   80487c0 <puts@plt>
 8049379:	83 c4 10             	add    $0x10,%esp
 804937c:	eb b4                	jmp    8049332 <phase_defused+0x18>
 804937e:	83 ec 08             	sub    $0x8,%esp
 8049381:	68 12 a3 04 08       	push   $0x804a312
 8049386:	8d 44 24 18          	lea    0x18(%esp),%eax
 804938a:	50                   	push   %eax
 804938b:	e8 36 fd ff ff       	call   80490c6 <strings_not_equal>
 8049390:	83 c4 10             	add    $0x10,%esp
 8049393:	85 c0                	test   %eax,%eax
 8049395:	75 d5                	jne    804936c <phase_defused+0x52>
 8049397:	83 ec 0c             	sub    $0xc,%esp
 804939a:	68 d8 a1 04 08       	push   $0x804a1d8
 804939f:	e8 1c f4 ff ff       	call   80487c0 <puts@plt>
 80493a4:	c7 04 24 00 a2 04 08 	movl   $0x804a200,(%esp)
 80493ab:	e8 10 f4 ff ff       	call   80487c0 <puts@plt>
 80493b0:	e8 1b fc ff ff       	call   8048fd0 <secret_phase>
 80493b5:	83 c4 10             	add    $0x10,%esp
 80493b8:	eb b2                	jmp    804936c <phase_defused+0x52>
 80493ba:	e8 d1 f3 ff ff       	call   8048790 <__stack_chk_fail@plt>

080493bf <sigalrm_handler>:
 80493bf:	83 ec 0c             	sub    $0xc,%esp
 80493c2:	6a 00                	push   $0x0
 80493c4:	68 68 a3 04 08       	push   $0x804a368
 80493c9:	6a 01                	push   $0x1
 80493cb:	ff 35 a0 c3 04 08    	pushl  0x804c3a0
 80493d1:	e8 8a f4 ff ff       	call   8048860 <__fprintf_chk@plt>
 80493d6:	c7 04 24 01 00 00 00 	movl   $0x1,(%esp)
 80493dd:	e8 fe f3 ff ff       	call   80487e0 <exit@plt>

080493e2 <rio_readlineb>:
 80493e2:	55                   	push   %ebp
 80493e3:	57                   	push   %edi
 80493e4:	56                   	push   %esi
 80493e5:	53                   	push   %ebx
 80493e6:	83 ec 1c             	sub    $0x1c,%esp
 80493e9:	83 f9 01             	cmp    $0x1,%ecx
 80493ec:	76 79                	jbe    8049467 <rio_readlineb+0x85>
 80493ee:	89 d7                	mov    %edx,%edi
 80493f0:	89 c3                	mov    %eax,%ebx
 80493f2:	89 4c 24 0c          	mov    %ecx,0xc(%esp)
 80493f6:	bd 01 00 00 00       	mov    $0x1,%ebp
 80493fb:	8d 70 0c             	lea    0xc(%eax),%esi
 80493fe:	eb 0a                	jmp    804940a <rio_readlineb+0x28>
 8049400:	e8 2b f4 ff ff       	call   8048830 <__errno_location@plt>
 8049405:	83 38 04             	cmpl   $0x4,(%eax)
 8049408:	75 66                	jne    8049470 <rio_readlineb+0x8e>
 804940a:	8b 43 04             	mov    0x4(%ebx),%eax
 804940d:	85 c0                	test   %eax,%eax
 804940f:	7f 23                	jg     8049434 <rio_readlineb+0x52>
 8049411:	83 ec 04             	sub    $0x4,%esp
 8049414:	68 00 20 00 00       	push   $0x2000
 8049419:	56                   	push   %esi
 804941a:	ff 33                	pushl  (%ebx)
 804941c:	e8 0f f3 ff ff       	call   8048730 <read@plt>
 8049421:	89 43 04             	mov    %eax,0x4(%ebx)
 8049424:	83 c4 10             	add    $0x10,%esp
 8049427:	85 c0                	test   %eax,%eax
 8049429:	78 d5                	js     8049400 <rio_readlineb+0x1e>
 804942b:	85 c0                	test   %eax,%eax
 804942d:	74 48                	je     8049477 <rio_readlineb+0x95>
 804942f:	89 73 08             	mov    %esi,0x8(%ebx)
 8049432:	eb d6                	jmp    804940a <rio_readlineb+0x28>
 8049434:	8b 4b 08             	mov    0x8(%ebx),%ecx
 8049437:	0f b6 11             	movzbl (%ecx),%edx
 804943a:	83 c1 01             	add    $0x1,%ecx
 804943d:	89 4b 08             	mov    %ecx,0x8(%ebx)
 8049440:	83 e8 01             	sub    $0x1,%eax
 8049443:	89 43 04             	mov    %eax,0x4(%ebx)
 8049446:	83 c7 01             	add    $0x1,%edi
 8049449:	88 57 ff             	mov    %dl,-0x1(%edi)
 804944c:	80 fa 0a             	cmp    $0xa,%dl
 804944f:	74 09                	je     804945a <rio_readlineb+0x78>
 8049451:	83 c5 01             	add    $0x1,%ebp
 8049454:	3b 6c 24 0c          	cmp    0xc(%esp),%ebp
 8049458:	75 b0                	jne    804940a <rio_readlineb+0x28>
 804945a:	c6 07 00             	movb   $0x0,(%edi)
 804945d:	89 e8                	mov    %ebp,%eax
 804945f:	83 c4 1c             	add    $0x1c,%esp
 8049462:	5b                   	pop    %ebx
 8049463:	5e                   	pop    %esi
 8049464:	5f                   	pop    %edi
 8049465:	5d                   	pop    %ebp
 8049466:	c3                   	ret    
 8049467:	89 d7                	mov    %edx,%edi
 8049469:	bd 01 00 00 00       	mov    $0x1,%ebp
 804946e:	eb ea                	jmp    804945a <rio_readlineb+0x78>
 8049470:	b8 ff ff ff ff       	mov    $0xffffffff,%eax
 8049475:	eb 05                	jmp    804947c <rio_readlineb+0x9a>
 8049477:	b8 00 00 00 00       	mov    $0x0,%eax
 804947c:	85 c0                	test   %eax,%eax
 804947e:	75 0c                	jne    804948c <rio_readlineb+0xaa>
 8049480:	83 fd 01             	cmp    $0x1,%ebp
 8049483:	75 d5                	jne    804945a <rio_readlineb+0x78>
 8049485:	bd 00 00 00 00       	mov    $0x0,%ebp
 804948a:	eb d1                	jmp    804945d <rio_readlineb+0x7b>
 804948c:	bd ff ff ff ff       	mov    $0xffffffff,%ebp
 8049491:	eb ca                	jmp    804945d <rio_readlineb+0x7b>

08049493 <submitr>:
 8049493:	55                   	push   %ebp
 8049494:	57                   	push   %edi
 8049495:	56                   	push   %esi
 8049496:	53                   	push   %ebx
 8049497:	81 ec 60 a0 00 00    	sub    $0xa060,%esp
 804949d:	8b 9c 24 74 a0 00 00 	mov    0xa074(%esp),%ebx
 80494a4:	8b 84 24 7c a0 00 00 	mov    0xa07c(%esp),%eax
 80494ab:	89 44 24 0c          	mov    %eax,0xc(%esp)
 80494af:	8b 84 24 80 a0 00 00 	mov    0xa080(%esp),%eax
 80494b6:	89 44 24 10          	mov    %eax,0x10(%esp)
 80494ba:	8b 84 24 84 a0 00 00 	mov    0xa084(%esp),%eax
 80494c1:	89 44 24 14          	mov    %eax,0x14(%esp)
 80494c5:	8b b4 24 88 a0 00 00 	mov    0xa088(%esp),%esi
 80494cc:	8b 84 24 8c a0 00 00 	mov    0xa08c(%esp),%eax
 80494d3:	89 44 24 18          	mov    %eax,0x18(%esp)
 80494d7:	65 a1 14 00 00 00    	mov    %gs:0x14,%eax
 80494dd:	89 84 24 50 a0 00 00 	mov    %eax,0xa050(%esp)
 80494e4:	31 c0                	xor    %eax,%eax
 80494e6:	c7 44 24 30 00 00 00 	movl   $0x0,0x30(%esp)
 80494ed:	00 
 80494ee:	6a 00                	push   $0x0
 80494f0:	6a 01                	push   $0x1
 80494f2:	6a 02                	push   $0x2
 80494f4:	e8 57 f3 ff ff       	call   8048850 <socket@plt>
 80494f9:	83 c4 10             	add    $0x10,%esp
 80494fc:	85 c0                	test   %eax,%eax
 80494fe:	0f 88 04 01 00 00    	js     8049608 <submitr+0x175>
 8049504:	89 c5                	mov    %eax,%ebp
 8049506:	83 ec 0c             	sub    $0xc,%esp
 8049509:	53                   	push   %ebx
 804950a:	e8 61 f3 ff ff       	call   8048870 <gethostbyname@plt>
 804950f:	83 c4 10             	add    $0x10,%esp
 8049512:	85 c0                	test   %eax,%eax
 8049514:	0f 84 40 01 00 00    	je     804965a <submitr+0x1c7>
 804951a:	8d 5c 24 30          	lea    0x30(%esp),%ebx
 804951e:	c7 44 24 30 00 00 00 	movl   $0x0,0x30(%esp)
 8049525:	00 
 8049526:	c7 44 24 34 00 00 00 	movl   $0x0,0x34(%esp)
 804952d:	00 
 804952e:	c7 44 24 38 00 00 00 	movl   $0x0,0x38(%esp)
 8049535:	00 
 8049536:	c7 44 24 3c 00 00 00 	movl   $0x0,0x3c(%esp)
 804953d:	00 
 804953e:	66 c7 44 24 30 02 00 	movw   $0x2,0x30(%esp)
 8049545:	6a 0c                	push   $0xc
 8049547:	ff 70 0c             	pushl  0xc(%eax)
 804954a:	8b 40 10             	mov    0x10(%eax),%eax
 804954d:	ff 30                	pushl  (%eax)
 804954f:	8d 44 24 40          	lea    0x40(%esp),%eax
 8049553:	50                   	push   %eax
 8049554:	e8 77 f2 ff ff       	call   80487d0 <__memmove_chk@plt>
 8049559:	0f b7 84 24 84 a0 00 	movzwl 0xa084(%esp),%eax
 8049560:	00 
 8049561:	66 c1 c8 08          	ror    $0x8,%ax
 8049565:	66 89 44 24 42       	mov    %ax,0x42(%esp)
 804956a:	83 c4 0c             	add    $0xc,%esp
 804956d:	6a 10                	push   $0x10
 804956f:	53                   	push   %ebx
 8049570:	55                   	push   %ebp
 8049571:	e8 1a f3 ff ff       	call   8048890 <connect@plt>
 8049576:	83 c4 10             	add    $0x10,%esp
 8049579:	85 c0                	test   %eax,%eax
 804957b:	0f 88 49 01 00 00    	js     80496ca <submitr+0x237>
 8049581:	ba ff ff ff ff       	mov    $0xffffffff,%edx
 8049586:	b8 00 00 00 00       	mov    $0x0,%eax
 804958b:	89 d1                	mov    %edx,%ecx
 804958d:	89 f7                	mov    %esi,%edi
 804958f:	f2 ae                	repnz scas %es:(%edi),%al
 8049591:	89 cb                	mov    %ecx,%ebx
 8049593:	f7 d3                	not    %ebx
 8049595:	89 d1                	mov    %edx,%ecx
 8049597:	8b 7c 24 08          	mov    0x8(%esp),%edi
 804959b:	f2 ae                	repnz scas %es:(%edi),%al
 804959d:	89 4c 24 18          	mov    %ecx,0x18(%esp)
 80495a1:	89 d1                	mov    %edx,%ecx
 80495a3:	8b 7c 24 0c          	mov    0xc(%esp),%edi
 80495a7:	f2 ae                	repnz scas %es:(%edi),%al
 80495a9:	89 cf                	mov    %ecx,%edi
 80495ab:	f7 d7                	not    %edi
 80495ad:	89 7c 24 1c          	mov    %edi,0x1c(%esp)
 80495b1:	89 d1                	mov    %edx,%ecx
 80495b3:	8b 7c 24 10          	mov    0x10(%esp),%edi
 80495b7:	f2 ae                	repnz scas %es:(%edi),%al
 80495b9:	8b 54 24 1c          	mov    0x1c(%esp),%edx
 80495bd:	2b 54 24 18          	sub    0x18(%esp),%edx
 80495c1:	29 ca                	sub    %ecx,%edx
 80495c3:	8d 44 5b fd          	lea    -0x3(%ebx,%ebx,2),%eax
 80495c7:	8d 44 02 7b          	lea    0x7b(%edx,%eax,1),%eax
 80495cb:	3d 00 20 00 00       	cmp    $0x2000,%eax
 80495d0:	0f 87 56 01 00 00    	ja     804972c <submitr+0x299>
 80495d6:	8d 94 24 4c 40 00 00 	lea    0x404c(%esp),%edx
 80495dd:	b9 00 08 00 00       	mov    $0x800,%ecx
 80495e2:	b8 00 00 00 00       	mov    $0x0,%eax
 80495e7:	89 d7                	mov    %edx,%edi
 80495e9:	f3 ab                	rep stos %eax,%es:(%edi)
 80495eb:	b9 ff ff ff ff       	mov    $0xffffffff,%ecx
 80495f0:	89 f7                	mov    %esi,%edi
 80495f2:	f2 ae                	repnz scas %es:(%edi),%al
 80495f4:	f7 d1                	not    %ecx
 80495f6:	89 cb                	mov    %ecx,%ebx
 80495f8:	83 eb 01             	sub    $0x1,%ebx
 80495fb:	0f 84 07 06 00 00    	je     8049c08 <submitr+0x775>
 8049601:	89 d7                	mov    %edx,%edi
 8049603:	e9 b0 01 00 00       	jmp    80497b8 <submitr+0x325>
 8049608:	8b 44 24 14          	mov    0x14(%esp),%eax
 804960c:	c7 00 45 72 72 6f    	movl   $0x6f727245,(%eax)
 8049612:	c7 40 04 72 3a 20 43 	movl   $0x43203a72,0x4(%eax)
 8049619:	c7 40 08 6c 69 65 6e 	movl   $0x6e65696c,0x8(%eax)
 8049620:	c7 40 0c 74 20 75 6e 	movl   $0x6e752074,0xc(%eax)
 8049627:	c7 40 10 61 62 6c 65 	movl   $0x656c6261,0x10(%eax)
 804962e:	c7 40 14 20 74 6f 20 	movl   $0x206f7420,0x14(%eax)
 8049635:	c7 40 18 63 72 65 61 	movl   $0x61657263,0x18(%eax)
 804963c:	c7 40 1c 74 65 20 73 	movl   $0x73206574,0x1c(%eax)
 8049643:	c7 40 20 6f 63 6b 65 	movl   $0x656b636f,0x20(%eax)
 804964a:	66 c7 40 24 74 00    	movw   $0x74,0x24(%eax)
 8049650:	b8 ff ff ff ff       	mov    $0xffffffff,%eax
 8049655:	e9 d0 04 00 00       	jmp    8049b2a <submitr+0x697>
 804965a:	8b 44 24 14          	mov    0x14(%esp),%eax
 804965e:	c7 00 45 72 72 6f    	movl   $0x6f727245,(%eax)
 8049664:	c7 40 04 72 3a 20 44 	movl   $0x44203a72,0x4(%eax)
 804966b:	c7 40 08 4e 53 20 69 	movl   $0x6920534e,0x8(%eax)
 8049672:	c7 40 0c 73 20 75 6e 	movl   $0x6e752073,0xc(%eax)
 8049679:	c7 40 10 61 62 6c 65 	movl   $0x656c6261,0x10(%eax)
 8049680:	c7 40 14 20 74 6f 20 	movl   $0x206f7420,0x14(%eax)
 8049687:	c7 40 18 72 65 73 6f 	movl   $0x6f736572,0x18(%eax)
 804968e:	c7 40 1c 6c 76 65 20 	movl   $0x2065766c,0x1c(%eax)
 8049695:	c7 40 20 73 65 72 76 	movl   $0x76726573,0x20(%eax)
 804969c:	c7 40 24 65 72 20 61 	movl   $0x61207265,0x24(%eax)
 80496a3:	c7 40 28 64 64 72 65 	movl   $0x65726464,0x28(%eax)
 80496aa:	66 c7 40 2c 73 73    	movw   $0x7373,0x2c(%eax)
 80496b0:	c6 40 2e 00          	movb   $0x0,0x2e(%eax)
 80496b4:	83 ec 0c             	sub    $0xc,%esp
 80496b7:	55                   	push   %ebp
 80496b8:	e8 e3 f1 ff ff       	call   80488a0 <close@plt>
 80496bd:	83 c4 10             	add    $0x10,%esp
 80496c0:	b8 ff ff ff ff       	mov    $0xffffffff,%eax
 80496c5:	e9 60 04 00 00       	jmp    8049b2a <submitr+0x697>
 80496ca:	8b 44 24 14          	mov    0x14(%esp),%eax
 80496ce:	c7 00 45 72 72 6f    	movl   $0x6f727245,(%eax)
 80496d4:	c7 40 04 72 3a 20 55 	movl   $0x55203a72,0x4(%eax)
 80496db:	c7 40 08 6e 61 62 6c 	movl   $0x6c62616e,0x8(%eax)
 80496e2:	c7 40 0c 65 20 74 6f 	movl   $0x6f742065,0xc(%eax)
 80496e9:	c7 40 10 20 63 6f 6e 	movl   $0x6e6f6320,0x10(%eax)
 80496f0:	c7 40 14 6e 65 63 74 	movl   $0x7463656e,0x14(%eax)
 80496f7:	c7 40 18 20 74 6f 20 	movl   $0x206f7420,0x18(%eax)
 80496fe:	c7 40 1c 74 68 65 20 	movl   $0x20656874,0x1c(%eax)
 8049705:	c7 40 20 73 65 72 76 	movl   $0x76726573,0x20(%eax)
 804970c:	66 c7 40 24 65 72    	movw   $0x7265,0x24(%eax)
 8049712:	c6 40 26 00          	movb   $0x0,0x26(%eax)
 8049716:	83 ec 0c             	sub    $0xc,%esp
 8049719:	55                   	push   %ebp
 804971a:	e8 81 f1 ff ff       	call   80488a0 <close@plt>
 804971f:	83 c4 10             	add    $0x10,%esp
 8049722:	b8 ff ff ff ff       	mov    $0xffffffff,%eax
 8049727:	e9 fe 03 00 00       	jmp    8049b2a <submitr+0x697>
 804972c:	8b 44 24 14          	mov    0x14(%esp),%eax
 8049730:	c7 00 45 72 72 6f    	movl   $0x6f727245,(%eax)
 8049736:	c7 40 04 72 3a 20 52 	movl   $0x52203a72,0x4(%eax)
 804973d:	c7 40 08 65 73 75 6c 	movl   $0x6c757365,0x8(%eax)
 8049744:	c7 40 0c 74 20 73 74 	movl   $0x74732074,0xc(%eax)
 804974b:	c7 40 10 72 69 6e 67 	movl   $0x676e6972,0x10(%eax)
 8049752:	c7 40 14 20 74 6f 6f 	movl   $0x6f6f7420,0x14(%eax)
 8049759:	c7 40 18 20 6c 61 72 	movl   $0x72616c20,0x18(%eax)
 8049760:	c7 40 1c 67 65 2e 20 	movl   $0x202e6567,0x1c(%eax)
 8049767:	c7 40 20 49 6e 63 72 	movl   $0x72636e49,0x20(%eax)
 804976e:	c7 40 24 65 61 73 65 	movl   $0x65736165,0x24(%eax)
 8049775:	c7 40 28 20 53 55 42 	movl   $0x42555320,0x28(%eax)
 804977c:	c7 40 2c 4d 49 54 52 	movl   $0x5254494d,0x2c(%eax)
 8049783:	c7 40 30 5f 4d 41 58 	movl   $0x58414d5f,0x30(%eax)
 804978a:	c7 40 34 42 55 46 00 	movl   $0x465542,0x34(%eax)
 8049791:	83 ec 0c             	sub    $0xc,%esp
 8049794:	55                   	push   %ebp
 8049795:	e8 06 f1 ff ff       	call   80488a0 <close@plt>
 804979a:	83 c4 10             	add    $0x10,%esp
 804979d:	b8 ff ff ff ff       	mov    $0xffffffff,%eax
 80497a2:	e9 83 03 00 00       	jmp    8049b2a <submitr+0x697>
 80497a7:	88 17                	mov    %dl,(%edi)
 80497a9:	8d 7f 01             	lea    0x1(%edi),%edi
 80497ac:	83 c6 01             	add    $0x1,%esi
 80497af:	83 eb 01             	sub    $0x1,%ebx
 80497b2:	0f 84 50 04 00 00    	je     8049c08 <submitr+0x775>
 80497b8:	0f b6 16             	movzbl (%esi),%edx
 80497bb:	8d 4a d6             	lea    -0x2a(%edx),%ecx
 80497be:	b8 01 00 00 00       	mov    $0x1,%eax
 80497c3:	80 f9 0f             	cmp    $0xf,%cl
 80497c6:	77 0d                	ja     80497d5 <submitr+0x342>
 80497c8:	b8 d9 ff 00 00       	mov    $0xffd9,%eax
 80497cd:	d3 e8                	shr    %cl,%eax
 80497cf:	83 f0 01             	xor    $0x1,%eax
 80497d2:	83 e0 01             	and    $0x1,%eax
 80497d5:	80 fa 5f             	cmp    $0x5f,%dl
 80497d8:	74 cd                	je     80497a7 <submitr+0x314>
 80497da:	84 c0                	test   %al,%al
 80497dc:	74 c9                	je     80497a7 <submitr+0x314>
 80497de:	89 d0                	mov    %edx,%eax
 80497e0:	83 e0 df             	and    $0xffffffdf,%eax
 80497e3:	83 e8 41             	sub    $0x41,%eax
 80497e6:	3c 19                	cmp    $0x19,%al
 80497e8:	76 bd                	jbe    80497a7 <submitr+0x314>
 80497ea:	80 fa 20             	cmp    $0x20,%dl
 80497ed:	74 58                	je     8049847 <submitr+0x3b4>
 80497ef:	8d 42 e0             	lea    -0x20(%edx),%eax
 80497f2:	3c 5f                	cmp    $0x5f,%al
 80497f4:	76 09                	jbe    80497ff <submitr+0x36c>
 80497f6:	80 fa 09             	cmp    $0x9,%dl
 80497f9:	0f 85 c5 03 00 00    	jne    8049bc4 <submitr+0x731>
 80497ff:	83 ec 0c             	sub    $0xc,%esp
 8049802:	0f b6 d2             	movzbl %dl,%edx
 8049805:	52                   	push   %edx
 8049806:	68 74 a4 04 08       	push   $0x804a474
 804980b:	6a 08                	push   $0x8
 804980d:	6a 01                	push   $0x1
 804980f:	8d 84 24 68 80 00 00 	lea    0x8068(%esp),%eax
 8049816:	50                   	push   %eax
 8049817:	e8 a4 f0 ff ff       	call   80488c0 <__sprintf_chk@plt>
 804981c:	0f b6 84 24 6c 80 00 	movzbl 0x806c(%esp),%eax
 8049823:	00 
 8049824:	88 07                	mov    %al,(%edi)
 8049826:	0f b6 84 24 6d 80 00 	movzbl 0x806d(%esp),%eax
 804982d:	00 
 804982e:	88 47 01             	mov    %al,0x1(%edi)
 8049831:	0f b6 84 24 6e 80 00 	movzbl 0x806e(%esp),%eax
 8049838:	00 
 8049839:	88 47 02             	mov    %al,0x2(%edi)
 804983c:	83 c4 20             	add    $0x20,%esp
 804983f:	8d 7f 03             	lea    0x3(%edi),%edi
 8049842:	e9 65 ff ff ff       	jmp    80497ac <submitr+0x319>
 8049847:	c6 07 2b             	movb   $0x2b,(%edi)
 804984a:	8d 7f 01             	lea    0x1(%edi),%edi
 804984d:	e9 5a ff ff ff       	jmp    80497ac <submitr+0x319>
 8049852:	01 c6                	add    %eax,%esi
 8049854:	29 c3                	sub    %eax,%ebx
 8049856:	74 24                	je     804987c <submitr+0x3e9>
 8049858:	83 ec 04             	sub    $0x4,%esp
 804985b:	53                   	push   %ebx
 804985c:	56                   	push   %esi
 804985d:	55                   	push   %ebp
 804985e:	e8 9d ef ff ff       	call   8048800 <write@plt>
 8049863:	83 c4 10             	add    $0x10,%esp
 8049866:	85 c0                	test   %eax,%eax
 8049868:	7f e8                	jg     8049852 <submitr+0x3bf>
 804986a:	e8 c1 ef ff ff       	call   8048830 <__errno_location@plt>
 804986f:	83 38 04             	cmpl   $0x4,(%eax)
 8049872:	0f 85 b0 00 00 00    	jne    8049928 <submitr+0x495>
 8049878:	89 f8                	mov    %edi,%eax
 804987a:	eb d6                	jmp    8049852 <submitr+0x3bf>
 804987c:	83 7c 24 08 00       	cmpl   $0x0,0x8(%esp)
 8049881:	0f 88 a1 00 00 00    	js     8049928 <submitr+0x495>
 8049887:	89 6c 24 40          	mov    %ebp,0x40(%esp)
 804988b:	c7 44 24 44 00 00 00 	movl   $0x0,0x44(%esp)
 8049892:	00 
 8049893:	8d 44 24 4c          	lea    0x4c(%esp),%eax
 8049897:	89 44 24 48          	mov    %eax,0x48(%esp)
 804989b:	b9 00 20 00 00       	mov    $0x2000,%ecx
 80498a0:	8d 94 24 4c 20 00 00 	lea    0x204c(%esp),%edx
 80498a7:	8d 44 24 40          	lea    0x40(%esp),%eax
 80498ab:	e8 32 fb ff ff       	call   80493e2 <rio_readlineb>
 80498b0:	85 c0                	test   %eax,%eax
 80498b2:	0f 8e d6 00 00 00    	jle    804998e <submitr+0x4fb>
 80498b8:	83 ec 0c             	sub    $0xc,%esp
 80498bb:	8d 84 24 58 80 00 00 	lea    0x8058(%esp),%eax
 80498c2:	50                   	push   %eax
 80498c3:	8d 44 24 3c          	lea    0x3c(%esp),%eax
 80498c7:	50                   	push   %eax
 80498c8:	8d 84 24 60 60 00 00 	lea    0x6060(%esp),%eax
 80498cf:	50                   	push   %eax
 80498d0:	68 7b a4 04 08       	push   $0x804a47b
 80498d5:	8d 84 24 68 20 00 00 	lea    0x2068(%esp),%eax
 80498dc:	50                   	push   %eax
 80498dd:	e8 2e ef ff ff       	call   8048810 <__isoc99_sscanf@plt>
 80498e2:	8b 44 24 4c          	mov    0x4c(%esp),%eax
 80498e6:	83 c4 20             	add    $0x20,%esp
 80498e9:	3d c8 00 00 00       	cmp    $0xc8,%eax
 80498ee:	0f 84 a6 01 00 00    	je     8049a9a <submitr+0x607>
 80498f4:	83 ec 08             	sub    $0x8,%esp
 80498f7:	8d 94 24 54 80 00 00 	lea    0x8054(%esp),%edx
 80498fe:	52                   	push   %edx
 80498ff:	50                   	push   %eax
 8049900:	68 8c a3 04 08       	push   $0x804a38c
 8049905:	6a ff                	push   $0xffffffff
 8049907:	6a 01                	push   $0x1
 8049909:	ff 74 24 30          	pushl  0x30(%esp)
 804990d:	e8 ae ef ff ff       	call   80488c0 <__sprintf_chk@plt>
 8049912:	83 c4 14             	add    $0x14,%esp
 8049915:	55                   	push   %ebp
 8049916:	e8 85 ef ff ff       	call   80488a0 <close@plt>
 804991b:	83 c4 10             	add    $0x10,%esp
 804991e:	b8 ff ff ff ff       	mov    $0xffffffff,%eax
 8049923:	e9 02 02 00 00       	jmp    8049b2a <submitr+0x697>
 8049928:	8b 44 24 14          	mov    0x14(%esp),%eax
 804992c:	c7 00 45 72 72 6f    	movl   $0x6f727245,(%eax)
 8049932:	c7 40 04 72 3a 20 43 	movl   $0x43203a72,0x4(%eax)
 8049939:	c7 40 08 6c 69 65 6e 	movl   $0x6e65696c,0x8(%eax)
 8049940:	c7 40 0c 74 20 75 6e 	movl   $0x6e752074,0xc(%eax)
 8049947:	c7 40 10 61 62 6c 65 	movl   $0x656c6261,0x10(%eax)
 804994e:	c7 40 14 20 74 6f 20 	movl   $0x206f7420,0x14(%eax)
 8049955:	c7 40 18 77 72 69 74 	movl   $0x74697277,0x18(%eax)
 804995c:	c7 40 1c 65 20 74 6f 	movl   $0x6f742065,0x1c(%eax)
 8049963:	c7 40 20 20 74 68 65 	movl   $0x65687420,0x20(%eax)
 804996a:	c7 40 24 20 73 65 72 	movl   $0x72657320,0x24(%eax)
 8049971:	c7 40 28 76 65 72 00 	movl   $0x726576,0x28(%eax)
 8049978:	83 ec 0c             	sub    $0xc,%esp
 804997b:	55                   	push   %ebp
 804997c:	e8 1f ef ff ff       	call   80488a0 <close@plt>
 8049981:	83 c4 10             	add    $0x10,%esp
 8049984:	b8 ff ff ff ff       	mov    $0xffffffff,%eax
 8049989:	e9 9c 01 00 00       	jmp    8049b2a <submitr+0x697>
 804998e:	8b 44 24 14          	mov    0x14(%esp),%eax
 8049992:	c7 00 45 72 72 6f    	movl   $0x6f727245,(%eax)
 8049998:	c7 40 04 72 3a 20 43 	movl   $0x43203a72,0x4(%eax)
 804999f:	c7 40 08 6c 69 65 6e 	movl   $0x6e65696c,0x8(%eax)
 80499a6:	c7 40 0c 74 20 75 6e 	movl   $0x6e752074,0xc(%eax)
 80499ad:	c7 40 10 61 62 6c 65 	movl   $0x656c6261,0x10(%eax)
 80499b4:	c7 40 14 20 74 6f 20 	movl   $0x206f7420,0x14(%eax)
 80499bb:	c7 40 18 72 65 61 64 	movl   $0x64616572,0x18(%eax)
 80499c2:	c7 40 1c 20 66 69 72 	movl   $0x72696620,0x1c(%eax)
 80499c9:	c7 40 20 73 74 20 68 	movl   $0x68207473,0x20(%eax)
 80499d0:	c7 40 24 65 61 64 65 	movl   $0x65646165,0x24(%eax)
 80499d7:	c7 40 28 72 20 66 72 	movl   $0x72662072,0x28(%eax)
 80499de:	c7 40 2c 6f 6d 20 73 	movl   $0x73206d6f,0x2c(%eax)
 80499e5:	c7 40 30 65 72 76 65 	movl   $0x65767265,0x30(%eax)
 80499ec:	66 c7 40 34 72 00    	movw   $0x72,0x34(%eax)
 80499f2:	83 ec 0c             	sub    $0xc,%esp
 80499f5:	55                   	push   %ebp
 80499f6:	e8 a5 ee ff ff       	call   80488a0 <close@plt>
 80499fb:	83 c4 10             	add    $0x10,%esp
 80499fe:	b8 ff ff ff ff       	mov    $0xffffffff,%eax
 8049a03:	e9 22 01 00 00       	jmp    8049b2a <submitr+0x697>
 8049a08:	8b 44 24 14          	mov    0x14(%esp),%eax
 8049a0c:	c7 00 45 72 72 6f    	movl   $0x6f727245,(%eax)
 8049a12:	c7 40 04 72 3a 20 43 	movl   $0x43203a72,0x4(%eax)
 8049a19:	c7 40 08 6c 69 65 6e 	movl   $0x6e65696c,0x8(%eax)
 8049a20:	c7 40 0c 74 20 75 6e 	movl   $0x6e752074,0xc(%eax)
 8049a27:	c7 40 10 61 62 6c 65 	movl   $0x656c6261,0x10(%eax)
 8049a2e:	c7 40 14 20 74 6f 20 	movl   $0x206f7420,0x14(%eax)
 8049a35:	c7 40 18 72 65 61 64 	movl   $0x64616572,0x18(%eax)
 8049a3c:	c7 40 1c 20 68 65 61 	movl   $0x61656820,0x1c(%eax)
 8049a43:	c7 40 20 64 65 72 73 	movl   $0x73726564,0x20(%eax)
 8049a4a:	c7 40 24 20 66 72 6f 	movl   $0x6f726620,0x24(%eax)
 8049a51:	c7 40 28 6d 20 73 65 	movl   $0x6573206d,0x28(%eax)
 8049a58:	c7 40 2c 72 76 65 72 	movl   $0x72657672,0x2c(%eax)
 8049a5f:	c6 40 30 00          	movb   $0x0,0x30(%eax)
 8049a63:	83 ec 0c             	sub    $0xc,%esp
 8049a66:	55                   	push   %ebp
 8049a67:	e8 34 ee ff ff       	call   80488a0 <close@plt>
 8049a6c:	83 c4 10             	add    $0x10,%esp
 8049a6f:	b8 ff ff ff ff       	mov    $0xffffffff,%eax
 8049a74:	e9 b1 00 00 00       	jmp    8049b2a <submitr+0x697>
 8049a79:	85 c0                	test   %eax,%eax
 8049a7b:	74 4b                	je     8049ac8 <submitr+0x635>
 8049a7d:	b9 00 20 00 00       	mov    $0x2000,%ecx
 8049a82:	8d 94 24 4c 20 00 00 	lea    0x204c(%esp),%edx
 8049a89:	8d 44 24 40          	lea    0x40(%esp),%eax
 8049a8d:	e8 50 f9 ff ff       	call   80493e2 <rio_readlineb>
 8049a92:	85 c0                	test   %eax,%eax
 8049a94:	0f 8e 6e ff ff ff    	jle    8049a08 <submitr+0x575>
 8049a9a:	0f b6 94 24 4c 20 00 	movzbl 0x204c(%esp),%edx
 8049aa1:	00 
 8049aa2:	b8 0d 00 00 00       	mov    $0xd,%eax
 8049aa7:	29 d0                	sub    %edx,%eax
 8049aa9:	75 ce                	jne    8049a79 <submitr+0x5e6>
 8049aab:	0f b6 94 24 4d 20 00 	movzbl 0x204d(%esp),%edx
 8049ab2:	00 
 8049ab3:	b8 0a 00 00 00       	mov    $0xa,%eax
 8049ab8:	29 d0                	sub    %edx,%eax
 8049aba:	75 bd                	jne    8049a79 <submitr+0x5e6>
 8049abc:	0f b6 84 24 4e 20 00 	movzbl 0x204e(%esp),%eax
 8049ac3:	00 
 8049ac4:	f7 d8                	neg    %eax
 8049ac6:	eb b1                	jmp    8049a79 <submitr+0x5e6>
 8049ac8:	b9 00 20 00 00       	mov    $0x2000,%ecx
 8049acd:	8d 94 24 4c 20 00 00 	lea    0x204c(%esp),%edx
 8049ad4:	8d 44 24 40          	lea    0x40(%esp),%eax
 8049ad8:	e8 05 f9 ff ff       	call   80493e2 <rio_readlineb>
 8049add:	85 c0                	test   %eax,%eax
 8049adf:	7e 68                	jle    8049b49 <submitr+0x6b6>
 8049ae1:	83 ec 08             	sub    $0x8,%esp
 8049ae4:	8d 84 24 54 20 00 00 	lea    0x2054(%esp),%eax
 8049aeb:	50                   	push   %eax
 8049aec:	8b 7c 24 20          	mov    0x20(%esp),%edi
 8049af0:	57                   	push   %edi
 8049af1:	e8 aa ec ff ff       	call   80487a0 <strcpy@plt>
 8049af6:	89 2c 24             	mov    %ebp,(%esp)
 8049af9:	e8 a2 ed ff ff       	call   80488a0 <close@plt>
 8049afe:	0f b6 17             	movzbl (%edi),%edx
 8049b01:	b8 4f 00 00 00       	mov    $0x4f,%eax
 8049b06:	83 c4 10             	add    $0x10,%esp
 8049b09:	29 d0                	sub    %edx,%eax
 8049b0b:	75 13                	jne    8049b20 <submitr+0x68d>
 8049b0d:	0f b6 57 01          	movzbl 0x1(%edi),%edx
 8049b11:	b8 4b 00 00 00       	mov    $0x4b,%eax
 8049b16:	29 d0                	sub    %edx,%eax
 8049b18:	75 06                	jne    8049b20 <submitr+0x68d>
 8049b1a:	0f b6 47 02          	movzbl 0x2(%edi),%eax
 8049b1e:	f7 d8                	neg    %eax
 8049b20:	85 c0                	test   %eax,%eax
 8049b22:	0f 95 c0             	setne  %al
 8049b25:	0f b6 c0             	movzbl %al,%eax
 8049b28:	f7 d8                	neg    %eax
 8049b2a:	8b bc 24 4c a0 00 00 	mov    0xa04c(%esp),%edi
 8049b31:	65 33 3d 14 00 00 00 	xor    %gs:0x14,%edi
 8049b38:	0f 85 2a 01 00 00    	jne    8049c68 <submitr+0x7d5>
 8049b3e:	81 c4 5c a0 00 00    	add    $0xa05c,%esp
 8049b44:	5b                   	pop    %ebx
 8049b45:	5e                   	pop    %esi
 8049b46:	5f                   	pop    %edi
 8049b47:	5d                   	pop    %ebp
 8049b48:	c3                   	ret    
 8049b49:	8b 44 24 14          	mov    0x14(%esp),%eax
 8049b4d:	c7 00 45 72 72 6f    	movl   $0x6f727245,(%eax)
 8049b53:	c7 40 04 72 3a 20 43 	movl   $0x43203a72,0x4(%eax)
 8049b5a:	c7 40 08 6c 69 65 6e 	movl   $0x6e65696c,0x8(%eax)
 8049b61:	c7 40 0c 74 20 75 6e 	movl   $0x6e752074,0xc(%eax)
 8049b68:	c7 40 10 61 62 6c 65 	movl   $0x656c6261,0x10(%eax)
 8049b6f:	c7 40 14 20 74 6f 20 	movl   $0x206f7420,0x14(%eax)
 8049b76:	c7 40 18 72 65 61 64 	movl   $0x64616572,0x18(%eax)
 8049b7d:	c7 40 1c 20 73 74 61 	movl   $0x61747320,0x1c(%eax)
 8049b84:	c7 40 20 74 75 73 20 	movl   $0x20737574,0x20(%eax)
 8049b8b:	c7 40 24 6d 65 73 73 	movl   $0x7373656d,0x24(%eax)
 8049b92:	c7 40 28 61 67 65 20 	movl   $0x20656761,0x28(%eax)
 8049b99:	c7 40 2c 66 72 6f 6d 	movl   $0x6d6f7266,0x2c(%eax)
 8049ba0:	c7 40 30 20 73 65 72 	movl   $0x72657320,0x30(%eax)
 8049ba7:	c7 40 34 76 65 72 00 	movl   $0x726576,0x34(%eax)
 8049bae:	83 ec 0c             	sub    $0xc,%esp
 8049bb1:	55                   	push   %ebp
 8049bb2:	e8 e9 ec ff ff       	call   80488a0 <close@plt>
 8049bb7:	83 c4 10             	add    $0x10,%esp
 8049bba:	b8 ff ff ff ff       	mov    $0xffffffff,%eax
 8049bbf:	e9 66 ff ff ff       	jmp    8049b2a <submitr+0x697>
 8049bc4:	a1 bc a3 04 08       	mov    0x804a3bc,%eax
 8049bc9:	8b 5c 24 14          	mov    0x14(%esp),%ebx
 8049bcd:	89 03                	mov    %eax,(%ebx)
 8049bcf:	a1 fb a3 04 08       	mov    0x804a3fb,%eax
 8049bd4:	89 43 3f             	mov    %eax,0x3f(%ebx)
 8049bd7:	8d 7b 04             	lea    0x4(%ebx),%edi
 8049bda:	83 e7 fc             	and    $0xfffffffc,%edi
 8049bdd:	29 fb                	sub    %edi,%ebx
 8049bdf:	89 d8                	mov    %ebx,%eax
 8049be1:	be bc a3 04 08       	mov    $0x804a3bc,%esi
 8049be6:	29 de                	sub    %ebx,%esi
 8049be8:	83 c0 43             	add    $0x43,%eax
 8049beb:	c1 e8 02             	shr    $0x2,%eax
 8049bee:	89 c1                	mov    %eax,%ecx
 8049bf0:	f3 a5                	rep movsl %ds:(%esi),%es:(%edi)
 8049bf2:	83 ec 0c             	sub    $0xc,%esp
 8049bf5:	55                   	push   %ebp
 8049bf6:	e8 a5 ec ff ff       	call   80488a0 <close@plt>
 8049bfb:	83 c4 10             	add    $0x10,%esp
 8049bfe:	b8 ff ff ff ff       	mov    $0xffffffff,%eax
 8049c03:	e9 22 ff ff ff       	jmp    8049b2a <submitr+0x697>
 8049c08:	8d 84 24 4c 40 00 00 	lea    0x404c(%esp),%eax
 8049c0f:	50                   	push   %eax
 8049c10:	ff 74 24 14          	pushl  0x14(%esp)
 8049c14:	ff 74 24 14          	pushl  0x14(%esp)
 8049c18:	ff 74 24 14          	pushl  0x14(%esp)
 8049c1c:	68 00 a4 04 08       	push   $0x804a400
 8049c21:	68 00 20 00 00       	push   $0x2000
 8049c26:	6a 01                	push   $0x1
 8049c28:	8d bc 24 68 20 00 00 	lea    0x2068(%esp),%edi
 8049c2f:	57                   	push   %edi
 8049c30:	e8 8b ec ff ff       	call   80488c0 <__sprintf_chk@plt>
 8049c35:	b8 00 00 00 00       	mov    $0x0,%eax
 8049c3a:	b9 ff ff ff ff       	mov    $0xffffffff,%ecx
 8049c3f:	f2 ae                	repnz scas %es:(%edi),%al
 8049c41:	f7 d1                	not    %ecx
 8049c43:	8d 41 ff             	lea    -0x1(%ecx),%eax
 8049c46:	89 44 24 28          	mov    %eax,0x28(%esp)
 8049c4a:	83 c4 20             	add    $0x20,%esp
 8049c4d:	89 c3                	mov    %eax,%ebx
 8049c4f:	8d b4 24 4c 20 00 00 	lea    0x204c(%esp),%esi
 8049c56:	bf 00 00 00 00       	mov    $0x0,%edi
 8049c5b:	85 c0                	test   %eax,%eax
 8049c5d:	0f 85 f5 fb ff ff    	jne    8049858 <submitr+0x3c5>
 8049c63:	e9 1f fc ff ff       	jmp    8049887 <submitr+0x3f4>
 8049c68:	e8 23 eb ff ff       	call   8048790 <__stack_chk_fail@plt>

08049c6d <init_timeout>:
 8049c6d:	53                   	push   %ebx
 8049c6e:	83 ec 08             	sub    $0x8,%esp
 8049c71:	8b 5c 24 10          	mov    0x10(%esp),%ebx
 8049c75:	85 db                	test   %ebx,%ebx
 8049c77:	74 24                	je     8049c9d <init_timeout+0x30>
 8049c79:	83 ec 08             	sub    $0x8,%esp
 8049c7c:	68 bf 93 04 08       	push   $0x80493bf
 8049c81:	6a 0e                	push   $0xe
 8049c83:	e8 d8 ea ff ff       	call   8048760 <signal@plt>
 8049c88:	85 db                	test   %ebx,%ebx
 8049c8a:	b8 00 00 00 00       	mov    $0x0,%eax
 8049c8f:	0f 48 d8             	cmovs  %eax,%ebx
 8049c92:	89 1c 24             	mov    %ebx,(%esp)
 8049c95:	e8 e6 ea ff ff       	call   8048780 <alarm@plt>
 8049c9a:	83 c4 10             	add    $0x10,%esp
 8049c9d:	83 c4 08             	add    $0x8,%esp
 8049ca0:	5b                   	pop    %ebx
 8049ca1:	c3                   	ret    

08049ca2 <init_driver>:
 8049ca2:	57                   	push   %edi
 8049ca3:	56                   	push   %esi
 8049ca4:	53                   	push   %ebx
 8049ca5:	83 ec 28             	sub    $0x28,%esp
 8049ca8:	8b 74 24 38          	mov    0x38(%esp),%esi
 8049cac:	65 a1 14 00 00 00    	mov    %gs:0x14,%eax
 8049cb2:	89 44 24 24          	mov    %eax,0x24(%esp)
 8049cb6:	31 c0                	xor    %eax,%eax
 8049cb8:	6a 01                	push   $0x1
 8049cba:	6a 0d                	push   $0xd
 8049cbc:	e8 9f ea ff ff       	call   8048760 <signal@plt>
 8049cc1:	83 c4 08             	add    $0x8,%esp
 8049cc4:	6a 01                	push   $0x1
 8049cc6:	6a 1d                	push   $0x1d
 8049cc8:	e8 93 ea ff ff       	call   8048760 <signal@plt>
 8049ccd:	83 c4 08             	add    $0x8,%esp
 8049cd0:	6a 01                	push   $0x1
 8049cd2:	6a 1d                	push   $0x1d
 8049cd4:	e8 87 ea ff ff       	call   8048760 <signal@plt>
 8049cd9:	83 c4 0c             	add    $0xc,%esp
 8049cdc:	6a 00                	push   $0x0
 8049cde:	6a 01                	push   $0x1
 8049ce0:	6a 02                	push   $0x2
 8049ce2:	e8 69 eb ff ff       	call   8048850 <socket@plt>
 8049ce7:	83 c4 10             	add    $0x10,%esp
 8049cea:	85 c0                	test   %eax,%eax
 8049cec:	0f 88 a9 00 00 00    	js     8049d9b <init_driver+0xf9>
 8049cf2:	89 c3                	mov    %eax,%ebx
 8049cf4:	83 ec 0c             	sub    $0xc,%esp
 8049cf7:	68 8c a4 04 08       	push   $0x804a48c
 8049cfc:	e8 6f eb ff ff       	call   8048870 <gethostbyname@plt>
 8049d01:	83 c4 10             	add    $0x10,%esp
 8049d04:	85 c0                	test   %eax,%eax
 8049d06:	0f 84 da 00 00 00    	je     8049de6 <init_driver+0x144>
 8049d0c:	8d 7c 24 0c          	lea    0xc(%esp),%edi
 8049d10:	c7 44 24 0c 00 00 00 	movl   $0x0,0xc(%esp)
 8049d17:	00 
 8049d18:	c7 44 24 10 00 00 00 	movl   $0x0,0x10(%esp)
 8049d1f:	00 
 8049d20:	c7 44 24 14 00 00 00 	movl   $0x0,0x14(%esp)
 8049d27:	00 
 8049d28:	c7 44 24 18 00 00 00 	movl   $0x0,0x18(%esp)
 8049d2f:	00 
 8049d30:	66 c7 44 24 0c 02 00 	movw   $0x2,0xc(%esp)
 8049d37:	6a 0c                	push   $0xc
 8049d39:	ff 70 0c             	pushl  0xc(%eax)
 8049d3c:	8b 40 10             	mov    0x10(%eax),%eax
 8049d3f:	ff 30                	pushl  (%eax)
 8049d41:	8d 44 24 1c          	lea    0x1c(%esp),%eax
 8049d45:	50                   	push   %eax
 8049d46:	e8 85 ea ff ff       	call   80487d0 <__memmove_chk@plt>
 8049d4b:	66 c7 44 24 1e 3b 6e 	movw   $0x6e3b,0x1e(%esp)
 8049d52:	83 c4 0c             	add    $0xc,%esp
 8049d55:	6a 10                	push   $0x10
 8049d57:	57                   	push   %edi
 8049d58:	53                   	push   %ebx
 8049d59:	e8 32 eb ff ff       	call   8048890 <connect@plt>
 8049d5e:	83 c4 10             	add    $0x10,%esp
 8049d61:	85 c0                	test   %eax,%eax
 8049d63:	0f 88 e9 00 00 00    	js     8049e52 <init_driver+0x1b0>
 8049d69:	83 ec 0c             	sub    $0xc,%esp
 8049d6c:	53                   	push   %ebx
 8049d6d:	e8 2e eb ff ff       	call   80488a0 <close@plt>
 8049d72:	66 c7 06 4f 4b       	movw   $0x4b4f,(%esi)
 8049d77:	c6 46 02 00          	movb   $0x0,0x2(%esi)
 8049d7b:	83 c4 10             	add    $0x10,%esp
 8049d7e:	b8 00 00 00 00       	mov    $0x0,%eax
 8049d83:	8b 54 24 1c          	mov    0x1c(%esp),%edx
 8049d87:	65 33 15 14 00 00 00 	xor    %gs:0x14,%edx
 8049d8e:	0f 85 eb 00 00 00    	jne    8049e7f <init_driver+0x1dd>
 8049d94:	83 c4 20             	add    $0x20,%esp
 8049d97:	5b                   	pop    %ebx
 8049d98:	5e                   	pop    %esi
 8049d99:	5f                   	pop    %edi
 8049d9a:	c3                   	ret    
 8049d9b:	c7 06 45 72 72 6f    	movl   $0x6f727245,(%esi)
 8049da1:	c7 46 04 72 3a 20 43 	movl   $0x43203a72,0x4(%esi)
 8049da8:	c7 46 08 6c 69 65 6e 	movl   $0x6e65696c,0x8(%esi)
 8049daf:	c7 46 0c 74 20 75 6e 	movl   $0x6e752074,0xc(%esi)
 8049db6:	c7 46 10 61 62 6c 65 	movl   $0x656c6261,0x10(%esi)
 8049dbd:	c7 46 14 20 74 6f 20 	movl   $0x206f7420,0x14(%esi)
 8049dc4:	c7 46 18 63 72 65 61 	movl   $0x61657263,0x18(%esi)
 8049dcb:	c7 46 1c 74 65 20 73 	movl   $0x73206574,0x1c(%esi)
 8049dd2:	c7 46 20 6f 63 6b 65 	movl   $0x656b636f,0x20(%esi)
 8049dd9:	66 c7 46 24 74 00    	movw   $0x74,0x24(%esi)
 8049ddf:	b8 ff ff ff ff       	mov    $0xffffffff,%eax
 8049de4:	eb 9d                	jmp    8049d83 <init_driver+0xe1>
 8049de6:	c7 06 45 72 72 6f    	movl   $0x6f727245,(%esi)
 8049dec:	c7 46 04 72 3a 20 44 	movl   $0x44203a72,0x4(%esi)
 8049df3:	c7 46 08 4e 53 20 69 	movl   $0x6920534e,0x8(%esi)
 8049dfa:	c7 46 0c 73 20 75 6e 	movl   $0x6e752073,0xc(%esi)
 8049e01:	c7 46 10 61 62 6c 65 	movl   $0x656c6261,0x10(%esi)
 8049e08:	c7 46 14 20 74 6f 20 	movl   $0x206f7420,0x14(%esi)
 8049e0f:	c7 46 18 72 65 73 6f 	movl   $0x6f736572,0x18(%esi)
 8049e16:	c7 46 1c 6c 76 65 20 	movl   $0x2065766c,0x1c(%esi)
 8049e1d:	c7 46 20 73 65 72 76 	movl   $0x76726573,0x20(%esi)
 8049e24:	c7 46 24 65 72 20 61 	movl   $0x61207265,0x24(%esi)
 8049e2b:	c7 46 28 64 64 72 65 	movl   $0x65726464,0x28(%esi)
 8049e32:	66 c7 46 2c 73 73    	movw   $0x7373,0x2c(%esi)
 8049e38:	c6 46 2e 00          	movb   $0x0,0x2e(%esi)
 8049e3c:	83 ec 0c             	sub    $0xc,%esp
 8049e3f:	53                   	push   %ebx
 8049e40:	e8 5b ea ff ff       	call   80488a0 <close@plt>
 8049e45:	83 c4 10             	add    $0x10,%esp
 8049e48:	b8 ff ff ff ff       	mov    $0xffffffff,%eax
 8049e4d:	e9 31 ff ff ff       	jmp    8049d83 <init_driver+0xe1>
 8049e52:	83 ec 0c             	sub    $0xc,%esp
 8049e55:	68 8c a4 04 08       	push   $0x804a48c
 8049e5a:	68 4c a4 04 08       	push   $0x804a44c
 8049e5f:	6a ff                	push   $0xffffffff
 8049e61:	6a 01                	push   $0x1
 8049e63:	56                   	push   %esi
 8049e64:	e8 57 ea ff ff       	call   80488c0 <__sprintf_chk@plt>
 8049e69:	83 c4 14             	add    $0x14,%esp
 8049e6c:	53                   	push   %ebx
 8049e6d:	e8 2e ea ff ff       	call   80488a0 <close@plt>
 8049e72:	83 c4 10             	add    $0x10,%esp
 8049e75:	b8 ff ff ff ff       	mov    $0xffffffff,%eax
 8049e7a:	e9 04 ff ff ff       	jmp    8049d83 <init_driver+0xe1>
 8049e7f:	e8 0c e9 ff ff       	call   8048790 <__stack_chk_fail@plt>

08049e84 <driver_post>:
 8049e84:	53                   	push   %ebx
 8049e85:	83 ec 08             	sub    $0x8,%esp
 8049e88:	8b 54 24 10          	mov    0x10(%esp),%edx
 8049e8c:	8b 44 24 18          	mov    0x18(%esp),%eax
 8049e90:	8b 5c 24 1c          	mov    0x1c(%esp),%ebx
 8049e94:	85 c0                	test   %eax,%eax
 8049e96:	75 17                	jne    8049eaf <driver_post+0x2b>
 8049e98:	85 d2                	test   %edx,%edx
 8049e9a:	74 05                	je     8049ea1 <driver_post+0x1d>
 8049e9c:	80 3a 00             	cmpb   $0x0,(%edx)
 8049e9f:	75 34                	jne    8049ed5 <driver_post+0x51>
 8049ea1:	66 c7 03 4f 4b       	movw   $0x4b4f,(%ebx)
 8049ea6:	c6 43 02 00          	movb   $0x0,0x2(%ebx)
 8049eaa:	83 c4 08             	add    $0x8,%esp
 8049ead:	5b                   	pop    %ebx
 8049eae:	c3                   	ret    
 8049eaf:	83 ec 04             	sub    $0x4,%esp
 8049eb2:	ff 74 24 18          	pushl  0x18(%esp)
 8049eb6:	68 9a a4 04 08       	push   $0x804a49a
 8049ebb:	6a 01                	push   $0x1
 8049ebd:	e8 7e e9 ff ff       	call   8048840 <__printf_chk@plt>
 8049ec2:	66 c7 03 4f 4b       	movw   $0x4b4f,(%ebx)
 8049ec7:	c6 43 02 00          	movb   $0x0,0x2(%ebx)
 8049ecb:	83 c4 10             	add    $0x10,%esp
 8049ece:	b8 00 00 00 00       	mov    $0x0,%eax
 8049ed3:	eb d5                	jmp    8049eaa <driver_post+0x26>
 8049ed5:	83 ec 04             	sub    $0x4,%esp
 8049ed8:	53                   	push   %ebx
 8049ed9:	ff 74 24 1c          	pushl  0x1c(%esp)
 8049edd:	68 b1 a4 04 08       	push   $0x804a4b1
 8049ee2:	52                   	push   %edx
 8049ee3:	68 b9 a4 04 08       	push   $0x804a4b9
 8049ee8:	68 6e 3b 00 00       	push   $0x3b6e
 8049eed:	68 8c a4 04 08       	push   $0x804a48c
 8049ef2:	e8 9c f5 ff ff       	call   8049493 <submitr>
 8049ef7:	83 c4 20             	add    $0x20,%esp
 8049efa:	eb ae                	jmp    8049eaa <driver_post+0x26>
 8049efc:	66 90                	xchg   %ax,%ax
 8049efe:	66 90                	xchg   %ax,%ax

08049f00 <__libc_csu_init>:
 8049f00:	55                   	push   %ebp
 8049f01:	57                   	push   %edi
 8049f02:	56                   	push   %esi
 8049f03:	53                   	push   %ebx
 8049f04:	e8 07 ea ff ff       	call   8048910 <__x86.get_pc_thunk.bx>
 8049f09:	81 c3 f7 20 00 00    	add    $0x20f7,%ebx
 8049f0f:	83 ec 0c             	sub    $0xc,%esp
 8049f12:	8b 6c 24 20          	mov    0x20(%esp),%ebp
 8049f16:	8d b3 0c ff ff ff    	lea    -0xf4(%ebx),%esi
 8049f1c:	e8 d3 e7 ff ff       	call   80486f4 <_init>
 8049f21:	8d 83 08 ff ff ff    	lea    -0xf8(%ebx),%eax
 8049f27:	29 c6                	sub    %eax,%esi
 8049f29:	c1 fe 02             	sar    $0x2,%esi
 8049f2c:	85 f6                	test   %esi,%esi
 8049f2e:	74 25                	je     8049f55 <__libc_csu_init+0x55>
 8049f30:	31 ff                	xor    %edi,%edi
 8049f32:	8d b6 00 00 00 00    	lea    0x0(%esi),%esi
 8049f38:	83 ec 04             	sub    $0x4,%esp
 8049f3b:	ff 74 24 2c          	pushl  0x2c(%esp)
 8049f3f:	ff 74 24 2c          	pushl  0x2c(%esp)
 8049f43:	55                   	push   %ebp
 8049f44:	ff 94 bb 08 ff ff ff 	call   *-0xf8(%ebx,%edi,4)
 8049f4b:	83 c7 01             	add    $0x1,%edi
 8049f4e:	83 c4 10             	add    $0x10,%esp
 8049f51:	39 fe                	cmp    %edi,%esi
 8049f53:	75 e3                	jne    8049f38 <__libc_csu_init+0x38>
 8049f55:	83 c4 0c             	add    $0xc,%esp
 8049f58:	5b                   	pop    %ebx
 8049f59:	5e                   	pop    %esi
 8049f5a:	5f                   	pop    %edi
 8049f5b:	5d                   	pop    %ebp
 8049f5c:	c3                   	ret    
 8049f5d:	8d 76 00             	lea    0x0(%esi),%esi

08049f60 <__libc_csu_fini>:
 8049f60:	f3 c3                	repz ret 

Disassembly of section .fini:

08049f64 <_fini>:
 8049f64:	53                   	push   %ebx
 8049f65:	83 ec 08             	sub    $0x8,%esp
 8049f68:	e8 a3 e9 ff ff       	call   8048910 <__x86.get_pc_thunk.bx>
 8049f6d:	81 c3 93 20 00 00    	add    $0x2093,%ebx
 8049f73:	83 c4 08             	add    $0x8,%esp
 8049f76:	5b                   	pop    %ebx
 8049f77:	c3                   	ret    
